(dp0
V1000000000000000000000000000000000000000000000000000000000000000001000001001000000
p1
I0
sV0001000000000000000000000000000000000000000000000000000000000000010000100001000000
p2
I1
sV1000000000000000000000000000000000000000000000000000000000000000010000100000010000
p3
I2
sV1000000000000000000000000000000000000000000000000000000000000000001000001001000001
p4
I3
sV0100000000000000000000000000000000000000000000000000000000000000010000010001000001
p5
I4
sV0010000000000000000000000000000000000000000000000000000000000000100000100001000000
p6
I5
sV0100000000000000000000000000000000000000000000000000000000000000001000010001000001
p7
I6
sV1000000000000000000000000000000000000000000000000000000000000000100001000000001000
p8
I7
sV0100000000000000000000000000000000000000000000000000000000000000001000010001000000
p9
I8
sV0100000000000000000000000000000000000000000000000000000000000000010000100000100000
p10
I9
sV0100000000000000000000000000000000000000000000000000000000000000010000010001000000
p11
I10
sV0010000000000000000000000000000000000000000000000000000000000000010000100001000000
p12
I11
sV1000000000000000000000000000000000000000000000000000000000000000010000010000100001
p13
I12
sV0001000000000000000000000000000000000000000000000000000000000000010000100001000001
p14
I13
sV0100000000000000000000000000000000000000000000000000000000000000100001000000010000
p15
I14
sV0010000000000000000000000000000000000000000000000000000000000000100001000000100000
p16
I15
sV1000000000000000000000000000000000000000000000000000000000000000010000010000100000
p17
I16
sV1000000000000000000000000000000000000000000000000000000000000000000100001001000000
p18
I17
sV0010000000000000000000000000000000000000000000000000000000000000010000100001000001
p19
I18
sV1000000000000000000000000000000000000000000000000000000000000000001000010000100000
p20
I19
sV0000100000000000000000000000000000000000000000000000000000000000100001000001000000
p21
I20
sV0001000000000000000000000000000000000000000000000000000000000000000100000011000000
p22
I21
sV0100000000000000000000000000000000000000000000000000000000000000100000100000100000
p23
I22
sV0000001000000000000000000000000000000000000000000000000000000000000100000101000000
p24
I23
sV1000000000000000000000000000000000000000000000000000000000000000010000001001000000
p25
I24
sV0100000000000000000000000000000000000000000000000000000000000000100000010001000000
p26
I25
sV0100000000000000000000000000000000000000000000000000000000000000001000001001000000
p27
I26
sV0010000000000000000000000000000000000000000000000000000000000000100001000001000000
p28
I27
sV0001000000000000000000000000000000000000000000000000000000000000100000100001000000
p29
I28
sV0001000000000000000000000000000000000000000000000000000000000000100001000000100000
p30
I29
sV0100000000000000000000000000000000000000000000000000000000000000000100001001000000
p31
I30
sV0000000000010000000000000000000000000000000000000000000000000001000000000011000000
p32
I31
sV0000000100000000000000000000000000000000000000000000000000000000100001000001000000
p33
I32
sV0000000010000000000000000000000000000000000000000000000000000000100001000001000000
p34
I33
sV0010000000000000000000000000000000000000000000000000000000000001000000000010010000
p35
I34
sV0000000000000010000000000000000000000000000000000000000000000000001000010001000000
p36
I35
sV1000000000000000000000000000000000000000000000000000000000000000100000010000100000
p37
I36
sV1000000000000000000000000000000000000000000000000000000000000000100000100000010000
p38
I37
sV0000000100000000000000000000000000000000000000000000000000000001000000000010100000
p39
I38
sV0000000000000000100000000000000000000000000000000000000000000000000100001001000000
p40
I39
sV0000000000000000001000000000000000000000000000000000000000000001000000000011000000
p41
I40
sV0000000000100000000000000000000000000000000000000000000000000001000000000011000000
p42
I41
sV0000000000000000000001000000000000000000000000000000000000000000000010000101000000
p43
I42
sV0000000000000000000000000000100000000000000000000000000000000001000000000011000000
p44
I43
sV0100000000000000000000000000000000000000000000000000000000000000100000100001000000
p45
I44
sV0000000000000001000000000000000000000000000000000000000000000000100001000001000000
p46
I45
sV0000000000000000000000010000000000000000000000000000000000000001000000000011000000
p47
I46
sV0000000100000000000000000000000000000000000000000000000000000001000000000011000000
p48
I47
sV0100000000000000000000000000000000000000000000000000000000000000001000001001000001
p49
I48
sV0000001000000000000000000000000000000000000000000000000000000000001000000101000000
p50
I49
sV0000000000000000010000000000000000000000000000000000000000000000000100000011000000
p51
I50
sV0000001000000000000000000000000000000000000000000000000000000000001000001000100000
p52
I51
sV0000000000000000000000000100000000000000000000000000000000000000000010000011000000
p53
I52
sV0000000001000000000000000000000000000000000000000000000000000001000000000011000000
p54
I53
sV0000000000000000000000100000000000000000000000000000000000000000001000001001000000
p55
I54
sV0100000000000000000000000000000000000000000000000000000000000000100000001001000000
p56
I55
sV0000000000000000000000000000000010000000000000000000000000000001000000000011000000
p57
I56
sV0000000000000000000000000000000000000001000000000000000000000001000000000011000000
p58
I57
sV0000000000001000000000000000000000000000000000000000000000000001000000000011000000
p59
I58
sV0100000000000000000000000000000000000000000000000000000000000000010000001001000000
p60
I59
sV0001000000000000000000000000000000000000000000000000000000000000001000001001000000
p61
I60
sV0000000000000000000000000000000000000000000000000000000000000011000000000011000000
p62
I61
sV0000000000000000000000000000001000000000000000000000000000000001000000000011000000
p63
I62
sV0100000000000000000000000000000000000000000000000000000000000000010000001001000001
p64
I63
sV1000000000000000000000000000000000000000000000000000000000000000010000001001000001
p65
I64
sV1000000000000000000000000000000000000000000000000000000000000000100000001001000000
p66
I65
sV0001000000000000000000000000000000000000000000000000000000000000001000010001000000
p67
I66
sV0000000000001000000000000000000000000000000000000000000000000000000010000011000000
p68
I67
sV0000000000000000000000000000100000000000000000000000000000000000010000100001000000
p69
I68
sV0000000000000000000000000000000000000000010000000000000000000000010000100001000000
p70
I69
sV0000000000000000000000000000000000000000000000000000000000001001000000000011000000
p71
I70
sV0000000000001000000000000000000000000000000000000000000000000000000100001001000000
p72
I71
sV0001000000000000000000000000000000000000000000000000000000000000010000010001000001
p73
I72
sV0100000000000000000000000000000000000000000000000000000000000000010000100001000001
p74
I73
sV0000000100000000000000000000000000000000000000000000000000000000010000100001000000
p75
I74
sV0000000000000010000000000000000000000000000000000000000000000001000000000011000000
p76
I75
sV0000000000000001000000000000000000000000000000000000000000000001000000000011000000
p77
I76
sV0000000000000000100000000000000000000000000000000000000000000000001000010001000000
p78
I77
sV0000000000000000000000000000000000000000000000000000010000000000001000000101000000
p79
I78
sV0000000000000000000000000000000000000000010000000000000000000000100001000001000000
p80
I79
sV0000000010000000000000000000000000000000000000000000000000000001000000000011000000
p81
I80
sV0000000000000000000000000000000000000000000000000000000000010001000000000011000000
p82
I81
sV0000001000000000000000000000000000000000000000000000000000000000001000010001000001
p83
I82
sV0010000000000000000000000000000000000000000000000000000000000001000000000011000000
p84
I83
sV0000000000000000000000000001000000000000000000000000000000000000010000001001000000
p85
I84
sV0000000000000000001000000000000000000000000000000000000000000001000001000001000000
p86
I85
sV0000000000000000000000000000000001000000000000000000000000000000100001000001000000
p87
I86
sV0000000000000000010000000000000000000000000000000000000000000000001000001001000000
p88
I87
sV0010000000000000000000000000000000000000000000000000000000000000001000010001000000
p89
I88
sV0001000000000000000000000000000000000000000000000000000000000000010000010000100000
p90
I89
sV0001000000000000000000000000000000000000000000000000000000000000100001000001000000
p91
I90
sV0000000000000000000000000000000000000000000000000000010000000000000100000011000000
p92
I91
sV0001000000000000000000000000000000000000000000000000000000000000001000000100100000
p93
I92
sV0000000000000100000000000000000000000000000000000000000000000000000100000101000000
p94
I93
sV1000000000000000000000000000000000000000000000000000000000000000100000010001000000
p95
I94
sV0000000000000100000000000000000000000000000000000000000000000000010000010001000000
p96
I95
sV0000000000000000000000000000000010000000000000000000000000000000010000100001000000
p97
I96
sV0000000000000000000000000010000000000000000000000000000000000000100000100001000000
p98
I97
sV0001000000000000000000000000000000000000000000000000000000000000000100001001000000
p99
I98
sV0000010000000000000000000000000000000000000000000000000000000000000100001001000000
p100
I99
sV0000000000000000000000000000010000000000000000000000000000000000100001000001000000
p101
I100
sV0000000000000000000000000100000000000000000000000000000000000000010000100001000000
p102
I101
sV0000000000000000000000000000000001000000000000000000000000000000010000010001000000
p103
I102
sV0000000000000000000000000000000000000100000000000000000000000001000000000011000000
p104
I103
sV0000000000000000000000100000000000000000000000000000000000000001000000000011000000
p105
I104
sV0010000000000000000000000000000000000000000000000000000000000001000000100001000000
p106
I105
sV0000000000000000000000000000000000000000000000000000000000000010000100001001000000
p107
I106
sV0000000000000000000000000000000000000000000000000000010000000000000010000011000000
p108
I107
sV0000000010000000000000000000000000000000000000000000000000000001000000000010100000
p109
I108
sV0000000000000000000000000010000000000000000000000000000000000000010000100001000001
p110
I109
sV0000000000000000000000000010000000000000000000000000000000000000001000001001000000
p111
I110
sV0000000000000000010000000000000000000000000000000000000000000000000010000011000000
p112
I111
sV0000000000000100000000000000000000000000000000000000000000000000001000010001000000
p113
I112
sV0000001000000000000000000000000000000000000000000000000000000000000100001001000000
p114
I113
sV0000000000000000000000000100000000000000000000000000000000000000000100001001000000
p115
I114
sV0000000100000000000000000000000000000000000000000000000000000000000100001001000000
p116
I115
sV0000010000000000000000000000000000000000000000000000000000000000010000001001000000
p117
I116
sV0000000000000100000000000000000000000000000000000000000000000000000100001001000000
p118
I117
sV0000000000000000000000000010000000000000000000000000000000000000010000100001000000
p119
I118
sV0000000000000000000000000000000000000000000100000000000000000000000100000101000000
p120
I119
sV0100000000000000000000000000000000000000000000000000000000000000010000100001000000
p121
I120
s.