(dp0
V-MT
p1
I0
sVMTF
p2
I1
sVTFS
p3
I2
sVFSE
p4
I3
sVSEI
p5
I4
sVEIL
p6
I5
sVILD
p7
I6
sVLDR
p8
I7
sVDRV
p9
I8
sVRVG
p10
I9
sVVGS
p11
I10
sVGSM
p12
I11
sVSMG
p13
I12
sVMGH
p14
I13
sVGHF
p15
I14
sVHFQ
p16
I15
sVFQF
p17
I16
sVQFL
p18
I17
sVFLH
p19
I18
sVLHV
p20
I19
sVHVA
p21
I20
sVVAI
p22
I21
sVAIL
p23
I22
sVILG
p24
I23
sVLGL
p25
I24
sVGLP
p26
I25
sVLPI
p27
I26
sVPIL
p28
I27
sVILN
p29
I28
sVLNM
p30
I29
sVNMA
p31
I30
sVMAN
p32
I31
sVANH
p33
I32
sVNHN
p34
I33
sVHNL
p35
I34
sVNLL
p36
I35
sVLLQ
p37
I36
sVLQI
p38
I37
sVQIF
p39
I38
sVIFT
p40
I39
sVFTA
p41
I40
sVTAA
p42
I41
sVAAT
p43
I42
sVATP
p44
I43
sVTPV
p45
I44
sVPVH
p46
I45
sVVHH
p47
I46
sVHHC
p48
I47
sVHCR
p49
I48
sVCRP
p50
I49
sVRPP
p51
I50
sVPPH
p52
I51
sVPHN
p53
I52
sVHNA
p54
I53
sVNAS
p55
I54
sVAST
p56
I55
sVSTG
p57
I56
sVTGP
p58
I57
sVGPW
p59
I58
sVPWV
p60
I59
sVWVL
p61
I60
sVVLP
p62
I61
sVLPM
p63
I62
sVPMG
p64
I63
sVMGP
p65
I64
sVGPN
p66
I65
sVPNG
p67
I66
sVNGK
p68
I67
sVGKP
p69
I68
sVKPE
p70
I69
sVPER
p71
I70
sVERC
p72
I71
sVRCL
p73
I72
sVCLR
p74
I73
sVLRF
p75
I74
sVRFV
p76
I75
sVFVH
p77
I76
sVVHP
p78
I77
sVHPP
p79
I78
sVPPN
p80
I79
sVPNA
p81
I80
sVASL
p82
I81
sVSLP
p83
I82
sVLPN
p84
I83
sVPND
p85
I84
sVNDT
p86
I85
sVDTQ
p87
I86
sVTQR
p88
I87
sVQRA
p89
I88
sVRAM
p90
I89
sVAME
p91
I90
sVMEP
p92
I91
sVEPC
p93
I92
sVPCL
p94
I93
sVCLD
p95
I94
sVLDG
p96
I95
sVDGW
p97
I96
sVGWV
p98
I97
sVWVY
p99
I98
sVVYN
p100
I99
sVYNS
p101
I100
sVNST
p102
I101
sVSTK
p103
I102
sVTKD
p104
I103
sVKDS
p105
I104
sVDSI
p106
I105
sVSIV
p107
I106
sVIVT
p108
I107
sVVTE
p109
I108
sVTEW
p110
I109
sVEWD
p111
I110
sVWDL
p112
I111
sVDLV
p113
I112
sVLVC
p114
I113
sVVCN
p115
I114
sVCNS
p116
I115
sVNSN
p117
I116
sVSNK
p118
I117
sVNKL
p119
I118
sVKLK
p120
I119
sVLKE
p121
I120
sVKEM
p122
I121
sVEMA
p123
I122
sVMAQ
p124
I123
sVAQS
p125
I124
sVQSI
p126
I125
sVSIF
p127
I126
sVIFM
p128
I127
sVFMA
p129
I128
sVMAG
p130
I129
sVAGI
p131
I130
sVGIL
p132
I131
sVILI
p133
I132
sVLIG
p134
I133
sVIGG
p135
I134
sVGGL
p136
I135
sVGLV
p137
I136
sVLVL
p138
I137
sVVLG
p139
I138
sVLGD
p140
I139
sVGDL
p141
I140
sVDLS
p142
I141
sVLSD
p143
I142
sVSDR
p144
I143
sVDRF
p145
I144
sVRFG
p146
I145
sVFGR
p147
I146
sVGRR
p148
I147
sVRRP
p149
I148
sVRPI
p150
I149
sVILT
p151
I150
sVLTC
p152
I151
sVTCS
p153
I152
sVCSY
p154
I153
sVSYL
p155
I154
sVYLL
p156
I155
sVLLL
p157
I156
sVLLA
p158
I157
sVLAA
p159
I158
sVAAS
p160
I159
sVASG
p161
I160
sVSGS
p162
I161
sVGSG
p163
I162
sVSGA
p164
I163
sVGAA
p165
I164
sVAAF
p166
I165
sVAFS
p167
I166
sVFSP
p168
I167
sVSPT
p169
I168
sVPTF
p170
I169
sVTFP
p171
I170
sVFPI
p172
I171
sVPIY
p173
I172
sVIYM
p174
I173
sVYMV
p175
I174
sVMVF
p176
I175
sVVFR
p177
I176
sVFRF
p178
I177
sVRFL
p179
I178
sVFLC
p180
I179
sVLCG
p181
I180
sVCGF
p182
I181
sVGFG
p183
I182
sVFGI
p184
I183
sVGIS
p185
I184
sVISG
p186
I185
sVSGI
p187
I186
sVGIT
p188
I187
sVITL
p189
I188
sVTLS
p190
I189
sVLST
p191
I190
sVSTV
p192
I191
sVTVI
p193
I192
sVVIL
p194
I193
sVLNV
p195
I194
sVNVE
p196
I195
sVVEW
p197
I196
sVEWV
p198
I197
sVWVP
p199
I198
sVVPT
p200
I199
sVPTR
p201
I200
sVTRM
p202
I201
sVRMR
p203
I202
sVMRA
p204
I203
sVRAI
p205
I204
sVAIM
p206
I205
sVIMS
p207
I206
sVMST
p208
I207
sVSTA
p209
I208
sVTAL
p210
I209
sVALG
p211
I210
sVLGY
p212
I211
sVGYC
p213
I212
sVYCY
p214
I213
sVCYT
p215
I214
sVYTF
p216
I215
sVTFG
p217
I216
sVFGQ
p218
I217
sVGQF
p219
I218
sVQFI
p220
I219
sVFIL
p221
I220
sVILP
p222
I221
sVLPG
p223
I222
sVPGL
p224
I223
sVGLA
p225
I224
sVLAY
p226
I225
sVAYA
p227
I226
sVYAI
p228
I227
sVAIP
p229
I228
sVIPQ
p230
I229
sVPQW
p231
I230
sVQWR
p232
I231
sVWRW
p233
I232
sVRWL
p234
I233
sVWLQ
p235
I234
sVLQL
p236
I235
sVQLT
p237
I236
sVLTV
p238
I237
sVTVS
p239
I238
sVVSI
p240
I239
sVSIP
p241
I240
sVIPF
p242
I241
sVPFF
p243
I242
sVFFV
p244
I243
sVFVF
p245
I244
sVVFF
p246
I245
sVFFL
p247
I246
sVFLS
p248
I247
sVLSS
p249
I248
sVSSW
p250
I249
sVSWW
p251
I250
sVWWT
p252
I251
sVWTP
p253
I252
sVTPE
p254
I253
sVPES
p255
I254
sVESI
p256
I255
sVSIR
p257
I256
sVIRW
p258
I257
sVWLV
p259
I258
sVVLS
p260
I259
sVLSG
p261
I260
sVSGK
p262
I261
sVGKS
p263
I262
sVKSS
p264
I263
sVSSK
p265
I264
sVSKA
p266
I265
sVKAL
p267
I266
sVALK
p268
I267
sVLKI
p269
I268
sVKIL
p270
I269
sVILR
p271
I270
sVLRR
p272
I271
sVRRV
p273
I272
sVRVA
p274
I273
sVVAV
p275
I274
sVAVF
p276
I275
sVVFN
p277
I276
sVFNG
p278
I277
sVGKK
p279
I278
sVKKE
p280
I279
sVKEE
p281
I280
sVEEG
p282
I281
sVEGE
p283
I282
sVGER
p284
I283
sVERL
p285
I284
sVRLS
p286
I285
sVLSL
p287
I286
sVSLE
p288
I287
sVLEE
p289
I288
sVEEL
p290
I289
sVELK
p291
I290
sVLKL
p292
I291
sVKLN
p293
I292
sVLNL
p294
I293
sVNLQ
p295
I294
sVLQK
p296
I295
sVQKE
p297
I296
sVKEI
p298
I297
sVEIS
p299
I298
sVISL
p300
I299
sVSLA
p301
I300
sVLAK
p302
I301
sVAKA
p303
I302
sVKAK
p304
I303
sVAKY
p305
I304
sVKYT
p306
I305
sVYTA
p307
I306
sVTAS
p308
I307
sVASD
p309
I308
sVSDL
p310
I309
sVDLF
p311
I310
sVLFR
p312
I311
sVFRI
p313
I312
sVRIP
p314
I313
sVIPM
p315
I314
sVPML
p316
I315
sVMLR
p317
I316
sVRRM
p318
I317
sVRMT
p319
I318
sVTFC
p320
I319
sVFCL
p321
I320
sVCLS
p322
I321
sVLAW
p323
I322
sVAWF
p324
I323
sVWFA
p325
I324
sVFAT
p326
I325
sVATG
p327
I326
sVTGF
p328
I327
sVGFA
p329
I328
sVFAY
p330
I329
sVAYY
p331
I330
sVYYS
p332
I331
sVYSL
p333
I332
sVLAM
p334
I333
sVAMG
p335
I334
sVMGV
p336
I335
sVGVE
p337
I336
sVVEE
p338
I337
sVEEF
p339
I338
sVEFG
p340
I339
sVFGV
p341
I340
sVGVN
p342
I341
sVVNL
p343
I342
sVNLY
p344
I343
sVLYI
p345
I344
sVYIL
p346
I345
sVILQ
p347
I346
sVQII
p348
I347
sVIIF
p349
I348
sVIFG
p350
I349
sVFGG
p351
I350
sVGGV
p352
I351
sVGVD
p353
I352
sVVDV
p354
I353
sVDVP
p355
I354
sVVPA
p356
I355
sVPAK
p357
I356
sVAKF
p358
I357
sVKFI
p359
I358
sVFIT
p360
I359
sVITI
p361
I360
sVTIL
p362
I361
sVILS
p363
I362
sVSLS
p364
I363
sVLSY
p365
I364
sVYLG
p366
I365
sVLGR
p367
I366
sVGRH
p368
I367
sVRHT
p369
I368
sVHTT
p370
I369
sVTTQ
p371
I370
sVTQA
p372
I371
sVQAA
p373
I372
sVAAA
p374
I373
sVAAL
p375
I374
sVALL
p376
I375
sVLAG
p377
I376
sVAGG
p378
I377
sVGGA
p379
I378
sVGAI
p380
I379
sVILA
p381
I380
sVLAL
p382
I381
sVALT
p383
I382
sVLTF
p384
I383
sVTFV
p385
I384
sVFVP
p386
I385
sVVPL
p387
I386
sVPLD
p388
I387
sVLDL
p389
I388
sVDLQ
p390
I389
sVLQT
p391
I390
sVQTV
p392
I391
sVTVR
p393
I392
sVVRT
p394
I393
sVRTV
p395
I394
sVTVL
p396
I395
sVVLA
p397
I396
sVLAV
p398
I397
sVVFG
p399
I398
sVFGK
p400
I399
sVGKG
p401
I400
sVKGC
p402
I401
sVGCL
p403
I402
sVSSS
p404
I403
sVSSF
p405
I404
sVSFS
p406
I405
sVFSC
p407
I406
sVSCL
p408
I407
sVCLF
p409
I408
sVLFL
p410
I409
sVFLY
p411
I410
sVLYT
p412
I411
sVYTS
p413
I412
sVTSE
p414
I413
sVSEL
p415
I414
sVELY
p416
I415
sVLYP
p417
I416
sVYPT
p418
I417
sVPTV
p419
I418
sVVIR
p420
I419
sVIRQ
p421
I420
sVRQT
p422
I421
sVQTG
p423
I422
sVTGM
p424
I423
sVGMG
p425
I424
sVGVS
p426
I425
sVVSN
p427
I426
sVSNL
p428
I427
sVNLW
p429
I428
sVLWT
p430
I429
sVWTR
p431
I430
sVTRV
p432
I431
sVSMV
p433
I432
sVMVS
p434
I433
sVVSP
p435
I434
sVSPL
p436
I435
sVPLV
p437
I436
sVLVK
p438
I437
sVVKI
p439
I438
sVKIT
p440
I439
sVITG
p441
I440
sVTGE
p442
I441
sVGEV
p443
I442
sVEVQ
p444
I443
sVVQP
p445
I444
sVQPF
p446
I445
sVPFI
p447
I446
sVFIP
p448
I447
sVIPN
p449
I448
sVPNI
p450
I449
sVNII
p451
I450
sVIIY
p452
I451
sVIYG
p453
I452
sVYGI
p454
I453
sVITA
p455
I454
sVLLG
p456
I455
sVLGG
p457
I456
sVGGS
p458
I457
sVGSA
p459
I458
sVSAA
p460
I459
sVALF
p461
I460
sVFLP
p462
I461
sVLPE
p463
I462
sVPET
p464
I463
sVETL
p465
I464
sVTLN
p466
I465
sVLNQ
p467
I466
sVNQP
p468
I467
sVQPL
p469
I468
sVPLP
p470
I469
sVETI
p471
I470
sVTIE
p472
I471
sVIED
p473
I472
sVEDL
p474
I473
sVDLE
p475
I474
sVLEN
p476
I475
sVENW
p477
I476
sVNWS
p478
I477
sVWSL
p479
I478
sVSLR
p480
I479
sVLRA
p481
I480
sVRAK
p482
I481
sVAKK
p483
I482
sVKKP
p484
I483
sVKPK
p485
I484
sVPKQ
p486
I485
sVKQE
p487
I486
sVQEP
p488
I487
sVEPE
p489
I488
sVPEV
p490
I489
sVEVE
p491
I490
sVVEK
p492
I491
sVEKA
p493
I492
sVKAS
p494
I493
sVASQ
p495
I494
sVSQR
p496
I495
sVQRI
p497
I496
sVIPL
p498
I497
sVPLQ
p499
I498
sVLQP
p500
I499
sVQPH
p501
I500
sVPHG
p502
I501
sVHGP
p503
I502
sVGPG
p504
I503
sVGLG
p505
I504
sVLGS
p506
I505
sVGSS
p507
I506
sVSS=
p508
I507
sV-ME
p509
I508
sVMEM
p510
I509
sVEME
p511
I510
sVMEK
p512
I511
sVEKE
p513
I512
sVKEF
p514
I513
sVEFE
p515
I514
sVFEQ
p516
I515
sVEQI
p517
I516
sVQID
p518
I517
sVIDK
p519
I518
sVDKS
p520
I519
sVKSG
p521
I520
sVGSW
p522
I521
sVSWA
p523
I522
sVWAA
p524
I523
sVAAI
p525
I524
sVAIY
p526
I525
sVIYQ
p527
I526
sVYQD
p528
I527
sVQDI
p529
I528
sVDIR
p530
I529
sVIRH
p531
I530
sVRHE
p532
I531
sVHEA
p533
I532
sVEAS
p534
I533
sVSDF
p535
I534
sVDFP
p536
I535
sVFPC
p537
I536
sVPCR
p538
I537
sVCRV
p539
I538
sVVAK
p540
I539
sVAKL
p541
I540
sVKLP
p542
I541
sVLPK
p543
I542
sVPKN
p544
I543
sVKNK
p545
I544
sVNKN
p546
I545
sVKNR
p547
I546
sVNRN
p548
I547
sVRNR
p549
I548
sVNRY
p550
I549
sVRYR
p551
I550
sVYRD
p552
I551
sVRDV
p553
I552
sVDVS
p554
I553
sVSPF
p555
I554
sVPFD
p556
I555
sVFDH
p557
I556
sVDHS
p558
I557
sVHSR
p559
I558
sVSRI
p560
I559
sVRIK
p561
I560
sVIKL
p562
I561
sVKLH
p563
I562
sVLHQ
p564
I563
sVHQE
p565
I564
sVQED
p566
I565
sVEDN
p567
I566
sVDND
p568
I567
sVNDY
p569
I568
sVDYI
p570
I569
sVYIN
p571
I570
sVINA
p572
I571
sVSLI
p573
I572
sVLIK
p574
I573
sVIKM
p575
I574
sVKME
p576
I575
sVMEE
p577
I576
sVEEA
p578
I577
sVEAQ
p579
I578
sVAQR
p580
I579
sVQRS
p581
I580
sVRSY
p582
I581
sVSYI
p583
I582
sVLTQ
p584
I583
sVTQG
p585
I584
sVQGP
p586
I585
sVGPL
p587
I586
sVPNT
p588
I587
sVNTC
p589
I588
sVTCG
p590
I589
sVCGH
p591
I590
sVHFW
p592
I591
sVFWE
p593
I592
sVWEM
p594
I593
sVEMV
p595
I594
sVMVW
p596
I595
sVVWE
p597
I596
sVWEQ
p598
I597
sVEQK
p599
I598
sVQKS
p600
I599
sVKSR
p601
I600
sVSRG
p602
I601
sVRGV
p603
I602
sVGVV
p604
I603
sVVVM
p605
I604
sVVML
p606
I605
sVMLN
p607
I606
sVLNR
p608
I607
sVNRV
p609
I608
sVRVM
p610
I609
sVVME
p611
I610
sVEKG
p612
I611
sVKGS
p613
I612
sVGSL
p614
I613
sVSLK
p615
I614
sVLKC
p616
I615
sVKCA
p617
I616
sVCAQ
p618
I617
sVAQY
p619
I618
sVQYW
p620
I619
sVYWP
p621
I620
sVWPQ
p622
I621
sVPQK
p623
I622
sVEEK
p624
I623
sVEMI
p625
I624
sVMIF
p626
I625
sVIFE
p627
I626
sVFED
p628
I627
sVEDT
p629
I628
sVDTN
p630
I629
sVTNL
p631
I630
sVNLK
p632
I631
sVKLT
p633
I632
sVLTL
p634
I633
sVTLI
p635
I634
sVLIS
p636
I635
sVISE
p637
I636
sVSED
p638
I637
sVEDI
p639
I638
sVDIK
p640
I639
sVIKS
p641
I640
sVKSY
p642
I641
sVSYY
p643
I642
sVYYT
p644
I643
sVYTV
p645
I644
sVVRQ
p646
I645
sVRQL
p647
I646
sVQLE
p648
I647
sVLEL
p649
I648
sVELE
p650
I649
sVENL
p651
I650
sVNLT
p652
I651
sVLTT
p653
I652
sVTQE
p654
I653
sVQET
p655
I654
sVETR
p656
I655
sVTRE
p657
I656
sVREI
p658
I657
sVILH
p659
I658
sVLHF
p660
I659
sVHFH
p661
I660
sVFHY
p662
I661
sVHYT
p663
I662
sVYTT
p664
I663
sVTTW
p665
I664
sVTWP
p666
I665
sVWPD
p667
I666
sVPDF
p668
I667
sVDFG
p669
I668
sVGVP
p670
I669
sVVPE
p671
I670
sVESP
p672
I671
sVSPA
p673
I672
sVPAS
p674
I673
sVASF
p675
I674
sVSFL
p676
I675
sVFLN
p677
I676
sVLNF
p678
I677
sVNFL
p679
I678
sVFLF
p680
I679
sVLFK
p681
I680
sVFKV
p682
I681
sVKVR
p683
I682
sVVRE
p684
I683
sVRES
p685
I684
sVESG
p686
I685
sVLSP
p687
I686
sVSPE
p688
I687
sVPEH
p689
I688
sVEHG
p690
I689
sVGPV
p691
I690
sVPVV
p692
I691
sVVVV
p693
I692
sVVVH
p694
I693
sVVHC
p695
I694
sVHCS
p696
I695
sVCSA
p697
I696
sVSAG
p698
I697
sVGIG
p699
I698
sVIGR
p700
I699
sVGRS
p701
I700
sVRSG
p702
I701
sVSGT
p703
I702
sVGTF
p704
I703
sVCLA
p705
I704
sVLAD
p706
I705
sVADT
p707
I706
sVDTC
p708
I707
sVTCL
p709
I708
sVCLL
p710
I709
sVLLM
p711
I710
sVLMD
p712
I711
sVMDK
p713
I712
sVDKR
p714
I713
sVKRK
p715
I714
sVRKD
p716
I715
sVKDP
p717
I716
sVDPS
p718
I717
sVPSS
p719
I718
sVSSV
p720
I719
sVSVD
p721
I720
sVVDI
p722
I721
sVIKK
p723
I722
sVKKV
p724
I723
sVKVL
p725
I724
sVVLL
p726
I725
sVLLE
p727
I726
sVLEM
p728
I727
sVEMR
p729
I728
sVMRK
p730
I729
sVRKF
p731
I730
sVKFR
p732
I731
sVFRM
p733
I732
sVRMG
p734
I733
sVMGL
p735
I734
sVGLI
p736
I735
sVLIQ
p737
I736
sVIQT
p738
I737
sVQTA
p739
I738
sVTAD
p740
I739
sVADQ
p741
I740
sVDQL
p742
I741
sVQLR
p743
I742
sVRFS
p744
I743
sVFSY
p745
I744
sVYLA
p746
I745
sVAVI
p747
I746
sVVIE
p748
I747
sVIEG
p749
I748
sVEGA
p750
I749
sVGAK
p751
I750
sVFIM
p752
I751
sVIMG
p753
I752
sVMGD
p754
I753
sVGDS
p755
I754
sVDSS
p756
I755
sVSVQ
p757
I756
sVVQD
p758
I757
sVQDQ
p759
I758
sVDQW
p760
I759
sVQWK
p761
I760
sVWKE
p762
I761
sVKEL
p763
I762
sVELS
p764
I763
sVLSH
p765
I764
sVSHE
p766
I765
sVHED
p767
I766
sVLEP
p768
I767
sVEPP
p769
I768
sVPPP
p770
I769
sVPPE
p771
I770
sVEHI
p772
I771
sVHIP
p773
I772
sVIPP
p774
I773
sVPPR
p775
I774
sVPRP
p776
I775
sVPPK
p777
I776
sVPKR
p778
I777
sVKRI
p779
I778
sVRIL
p780
I779
sVILE
p781
I780
sVEPH
p782
I781
sVHNG
p783
I782
sVGKC
p784
I783
sVKCR
p785
I784
sVCRE
p786
I785
sVREF
p787
I786
sVEFF
p788
I787
sVFFP
p789
I788
sVFPN
p790
I789
sVPNH
p791
I790
sVNHQ
p792
I791
sVHQW
p793
I792
sVQWV
p794
I793
sVWVK
p795
I794
sVVKE
p796
I795
sVEET
p797
I796
sVETQ
p798
I797
sVEDK
p799
I798
sVDKD
p800
I799
sVKDC
p801
I800
sVDCP
p802
I801
sVCPI
p803
I802
sVPIK
p804
I803
sVIKE
p805
I804
sVGSP
p806
I805
sVPLN
p807
I806
sVLNA
p808
I807
sVNAA
p809
I808
sVAAP
p810
I809
sVAPY
p811
I810
sVPYG
p812
I811
sVGIE
p813
I812
sVIES
p814
I813
sVESM
p815
I814
sVSMS
p816
I815
sVMSQ
p817
I816
sVSQD
p818
I817
sVQDT
p819
I818
sVDTE
p820
I819
sVTEV
p821
I820
sVEVR
p822
I821
sVVRS
p823
I822
sVRSR
p824
I823
sVSRV
p825
I824
sVRVV
p826
I825
sVVVG
p827
I826
sVVGG
p828
I827
sVLRG
p829
I828
sVRGA
p830
I829
sVGAQ
p831
I830
sVAQA
p832
I831
sVASP
p833
I832
sVAKG
p834
I833
sVKGE
p835
I834
sVGEP
p836
I835
sVEPS
p837
I836
sVPSL
p838
I837
sVPEK
p839
I838
sVEKD
p840
I839
sVKDE
p841
I840
sVDED
p842
I841
sVEDH
p843
I842
sVDHA
p844
I843
sVHAL
p845
I844
sVALS
p846
I845
sVSYW
p847
I846
sVYWK
p848
I847
sVWKP
p849
I848
sVKPF
p850
I849
sVPFL
p851
I850
sVFLV
p852
I851
sVLVN
p853
I852
sVVNM
p854
I853
sVNMC
p855
I854
sVMCV
p856
I855
sVCVA
p857
I856
sVVAT
p858
I857
sVATV
p859
I858
sVVLT
p860
I859
sVLTA
p861
I860
sVTAG
p862
I861
sVAGA
p863
I862
sVGAY
p864
I863
sVAYL
p865
I864
sVYLC
p866
I865
sVLCY
p867
I866
sVCYR
p868
I867
sVYRF
p869
I868
sVLFN
p870
I869
sVFNS
p871
I870
sVSNT
p872
I871
sVNT=
p873
I872
sV-MR
p874
I873
sVMRE
p875
I874
sVEIV
p876
I875
sVIVH
p877
I876
sVVHI
p878
I877
sVHIQ
p879
I878
sVIQA
p880
I879
sVQAG
p881
I880
sVAGQ
p882
I881
sVGQC
p883
I882
sVQCG
p884
I883
sVCGN
p885
I884
sVGNQ
p886
I885
sVNQI
p887
I886
sVQIG
p888
I887
sVIGA
p889
I888
sVKFW
p890
I889
sVWEV
p891
I890
sVEVI
p892
I891
sVVIS
p893
I892
sVISD
p894
I893
sVSDE
p895
I894
sVDEH
p896
I895
sVHGI
p897
I896
sVGID
p898
I897
sVIDP
p899
I898
sVDPT
p900
I899
sVPTG
p901
I900
sVTGT
p902
I901
sVGTY
p903
I902
sVTYH
p904
I903
sVYHG
p905
I904
sVHGD
p906
I905
sVDSD
p907
I906
sVQLD
p908
I907
sVDRI
p909
I908
sVRIS
p910
I909
sVISV
p911
I910
sVSVY
p912
I911
sVVYY
p913
I912
sVYYN
p914
I913
sVYNE
p915
I914
sVNEA
p916
I915
sVEAT
p917
I916
sVTGG
p918
I917
sVGGK
p919
I918
sVGKY
p920
I919
sVKYV
p921
I920
sVYVP
p922
I921
sVVPR
p923
I922
sVPRA
p924
I923
sVILV
p925
I924
sVLVD
p926
I925
sVVDL
p927
I926
sVEPG
p928
I927
sVPGT
p929
I928
sVGTM
p930
I929
sVTMD
p931
I930
sVMDS
p932
I931
sVDSV
p933
I932
sVSVR
p934
I933
sVSGP
p935
I934
sVGPF
p936
I935
sVPFG
p937
I936
sVGQI
p938
I937
sVIFR
p939
I938
sVFRP
p940
I939
sVRPD
p941
I940
sVPDN
p942
I941
sVDNF
p943
I942
sVNFV
p944
I943
sVGQS
p945
I944
sVQSG
p946
I945
sVGAG
p947
I946
sVAGN
p948
I947
sVGNN
p949
I948
sVNNW
p950
I949
sVNWA
p951
I950
sVWAK
p952
I951
sVKGH
p953
I952
sVGHY
p954
I953
sVYTE
p955
I954
sVTEG
p956
I955
sVGAE
p957
I956
sVAEL
p958
I957
sVELV
p959
I958
sVVDS
p960
I959
sVSVL
p961
I960
sVVLD
p962
I961
sVLDV
p963
I962
sVDVV
p964
I963
sVVVR
p965
I964
sVVRK
p966
I965
sVRKE
p967
I966
sVKEA
p968
I967
sVEAE
p969
I968
sVAES
p970
I969
sVESC
p971
I970
sVSCD
p972
I971
sVCDC
p973
I972
sVDCL
p974
I973
sVCLQ
p975
I974
sVLQG
p976
I975
sVQGF
p977
I976
sVGFQ
p978
I977
sVFQL
p979
I978
sVLTH
p980
I979
sVTHS
p981
I980
sVHSL
p982
I981
sVSLG
p983
I982
sVGGG
p984
I983
sVGGT
p985
I984
sVGTG
p986
I985
sVTGS
p987
I986
sVSGM
p988
I987
sVMGT
p989
I988
sVGTL
p990
I989
sVTLL
p991
I990
sVLLI
p992
I991
sVISK
p993
I992
sVSKI
p994
I993
sVKIR
p995
I994
sVIRE
p996
I995
sVREE
p997
I996
sVEEY
p998
I997
sVEYP
p999
I998
sVYPD
p1000
I999
sVPDR
p1001
I1000
sVRIM
p1002
I1001
sVIMN
p1003
I1002
sVMNT
p1004
I1003
sVNTF
p1005
I1004
sVFSV
p1006
I1005
sVSVV
p1007
I1006
sVVVP
p1008
I1007
sVVPS
p1009
I1008
sVPSP
p1010
I1009
sVSPK
p1011
I1010
sVPKV
p1012
I1011
sVKVS
p1013
I1012
sVVSD
p1014
I1013
sVSDT
p1015
I1014
sVDTV
p1016
I1015
sVTVV
p1017
I1016
sVVVE
p1018
I1017
sVVEP
p1019
I1018
sVEPY
p1020
I1019
sVPYN
p1021
I1020
sVYNA
p1022
I1021
sVNAT
p1023
I1022
sVATL
p1024
I1023
sVLSV
p1025
I1024
sVSVH
p1026
I1025
sVVHQ
p1027
I1026
sVHQL
p1028
I1027
sVQLV
p1029
I1028
sVLVE
p1030
I1029
sVVEN
p1031
I1030
sVENT
p1032
I1031
sVNTD
p1033
I1032
sVTDE
p1034
I1033
sVDET
p1035
I1034
sVETY
p1036
I1035
sVTYC
p1037
I1036
sVYCI
p1038
I1037
sVCID
p1039
I1038
sVIDN
p1040
I1039
sVDNE
p1041
I1040
sVEAL
p1042
I1041
sVALY
p1043
I1042
sVLYD
p1044
I1043
sVYDI
p1045
I1044
sVDIC
p1046
I1045
sVICF
p1047
I1046
sVCFR
p1048
I1047
sVFRT
p1049
I1048
sVRTL
p1050
I1049
sVTLK
p1051
I1050
sVTTP
p1052
I1051
sVTPT
p1053
I1052
sVPTY
p1054
I1053
sVTYG
p1055
I1054
sVYGD
p1056
I1055
sVDLN
p1057
I1056
sVLNH
p1058
I1057
sVNHL
p1059
I1058
sVHLV
p1060
I1059
sVLVS
p1061
I1060
sVVSA
p1062
I1061
sVSAT
p1063
I1062
sVATM
p1064
I1063
sVTMS
p1065
I1064
sVMSG
p1066
I1065
sVSGV
p1067
I1066
sVGVT
p1068
I1067
sVVTT
p1069
I1068
sVTTC
p1070
I1069
sVRFP
p1071
I1070
sVFPG
p1072
I1071
sVPGQ
p1073
I1072
sVGQL
p1074
I1073
sVQLN
p1075
I1074
sVNAD
p1076
I1075
sVADL
p1077
I1076
sVDLR
p1078
I1077
sVLRK
p1079
I1078
sVRKL
p1080
I1079
sVKLA
p1081
I1080
sVAVN
p1082
I1081
sVNMV
p1083
I1082
sVMVP
p1084
I1083
sVVPF
p1085
I1084
sVPFP
p1086
I1085
sVFPR
p1087
I1086
sVPRL
p1088
I1087
sVRLH
p1089
I1088
sVHFF
p1090
I1089
sVFFM
p1091
I1090
sVFMP
p1092
I1091
sVMPG
p1093
I1092
sVPGF
p1094
I1093
sVFAP
p1095
I1094
sVAPL
p1096
I1095
sVPLT
p1097
I1096
sVLTS
p1098
I1097
sVTSR
p1099
I1098
sVRGS
p1100
I1099
sVGSQ
p1101
I1100
sVSQQ
p1102
I1101
sVQQY
p1103
I1102
sVQYR
p1104
I1103
sVYRA
p1105
I1104
sVRAL
p1106
I1105
sVTVP
p1107
I1106
sVPEL
p1108
I1107
sVELT
p1109
I1108
sVTQQ
p1110
I1109
sVQQV
p1111
I1110
sVQVF
p1112
I1111
sVVFD
p1113
I1112
sVFDA
p1114
I1113
sVDAK
p1115
I1114
sVAKN
p1116
I1115
sVKNM
p1117
I1116
sVNMM
p1118
I1117
sVMMA
p1119
I1118
sVMAA
p1120
I1119
sVAAC
p1121
I1120
sVACD
p1122
I1121
sVCDP
p1123
I1122
sVDPR
p1124
I1123
sVPRH
p1125
I1124
sVRHG
p1126
I1125
sVHGR
p1127
I1126
sVGRY
p1128
I1127
sVRYL
p1129
I1128
sVYLT
p1130
I1129
sVTVA
p1131
I1130
sVVAA
p1132
I1131
sVAAV
p1133
I1132
sVFRG
p1134
I1133
sVRGR
p1135
I1134
sVGRM
p1136
I1135
sVRMS
p1137
I1136
sVMSM
p1138
I1137
sVSMK
p1139
I1138
sVMKE
p1140
I1139
sVKEV
p1141
I1140
sVEVD
p1142
I1141
sVVDE
p1143
I1142
sVDEQ
p1144
I1143
sVEQM
p1145
I1144
sVQML
p1146
I1145
sVNVQ
p1147
I1146
sVVQN
p1148
I1147
sVQNK
p1149
I1148
sVKNS
p1150
I1149
sVNSS
p1151
I1150
sVSSY
p1152
I1151
sVSYF
p1153
I1152
sVYFV
p1154
I1153
sVFVE
p1155
I1154
sVEWI
p1156
I1155
sVWIP
p1157
I1156
sVPNN
p1158
I1157
sVNNV
p1159
I1158
sVNVK
p1160
I1159
sVVKT
p1161
I1160
sVKTA
p1162
I1161
sVTAV
p1163
I1162
sVAVC
p1164
I1163
sVVCD
p1165
I1164
sVCDI
p1166
I1165
sVDIP
p1167
I1166
sVPRG
p1168
I1167
sVRGL
p1169
I1168
sVGLK
p1170
I1169
sVLKM
p1171
I1170
sVKMA
p1172
I1171
sVMAV
p1173
I1172
sVAVT
p1174
I1173
sVVTF
p1175
I1174
sVTFI
p1176
I1175
sVFIG
p1177
I1176
sVIGN
p1178
I1177
sVGNS
p1179
I1178
sVTAI
p1180
I1179
sVAIQ
p1181
I1180
sVIQE
p1182
I1181
sVQEL
p1183
I1182
sVELF
p1184
I1183
sVFKR
p1185
I1184
sVSEQ
p1186
I1185
sVEQF
p1187
I1186
sVQFT
p1188
I1187
sVTAM
p1189
I1188
sVAMF
p1190
I1189
sVMFR
p1191
I1190
sVFRR
p1192
I1191
sVRRK
p1193
I1192
sVRKA
p1194
I1193
sVKAF
p1195
I1194
sVAFL
p1196
I1195
sVLHW
p1197
I1196
sVHWY
p1198
I1197
sVWYT
p1199
I1198
sVYTG
p1200
I1199
sVGEG
p1201
I1200
sVEGM
p1202
I1201
sVGMD
p1203
I1202
sVMDE
p1204
I1203
sVDEM
p1205
I1204
sVMEF
p1206
I1205
sVEFT
p1207
I1206
sVFTE
p1208
I1207
sVTEA
p1209
I1208
sVESN
p1210
I1209
sVSNM
p1211
I1210
sVNMN
p1212
I1211
sVMND
p1213
I1212
sVNDL
p1214
I1213
sVVSE
p1215
I1214
sVSEY
p1216
I1215
sVEYQ
p1217
I1216
sVYQQ
p1218
I1217
sVQYQ
p1219
I1218
sVQDA
p1220
I1219
sVDAT
p1221
I1220
sVATA
p1222
I1221
sVTAE
p1223
I1222
sVAEE
p1224
I1223
sVEEE
p1225
I1224
sVEED
p1226
I1225
sVEDF
p1227
I1226
sVFGE
p1228
I1227
sVGEE
p1229
I1228
sVEA=
p1230
I1229
sV-MG
p1231
I1230
sVMGI
p1232
I1231
sVGIQ
p1233
I1232
sVIQG
p1234
I1233
sVQGL
p1235
I1234
sVKLI
p1236
I1235
sVLIA
p1237
I1236
sVIAD
p1238
I1237
sVADV
p1239
I1238
sVDVA
p1240
I1239
sVVAP
p1241
I1240
sVAPS
p1242
I1241
sVPSA
p1243
I1242
sVSAI
p1244
I1243
sVAIR
p1245
I1244
sVREN
p1246
I1245
sVEND
p1247
I1246
sVNDI
p1248
I1247
sVYFG
p1249
I1248
sVGRK
p1250
I1249
sVRKV
p1251
I1250
sVKVA
p1252
I1251
sVAID
p1253
I1252
sVIDA
p1254
I1253
sVDAS
p1255
I1254
sVASM
p1256
I1255
sVMSI
p1257
I1256
sVSIY
p1258
I1257
sVYQF
p1259
I1258
sVFLI
p1260
I1259
sVIAV
p1261
I1260
sVAVR
p1262
I1261
sVRQG
p1263
I1262
sVQGG
p1264
I1263
sVGGD
p1265
I1264
sVGDV
p1266
I1265
sVDVL
p1267
I1266
sVVLQ
p1268
I1267
sVLQN
p1269
I1268
sVQNE
p1270
I1269
sVNEE
p1271
I1270
sVGET
p1272
I1271
sVETT
p1273
I1272
sVTTS
p1274
I1273
sVTSH
p1275
I1274
sVSHL
p1276
I1275
sVHLM
p1277
I1276
sVLMG
p1278
I1277
sVMGM
p1279
I1278
sVGMF
p1280
I1279
sVMFY
p1281
I1280
sVFYR
p1282
I1281
sVYRT
p1283
I1282
sVRTI
p1284
I1283
sVTIR
p1285
I1284
sVIRM
p1286
I1285
sVRMM
p1287
I1286
sVMME
p1288
I1287
sVMEN
p1289
I1288
sVENG
p1290
I1289
sVNGI
p1291
I1290
sVGIK
p1292
I1291
sVIKP
p1293
I1292
sVKPV
p1294
I1293
sVPVY
p1295
I1294
sVVYV
p1296
I1295
sVYVF
p1297
I1296
sVFDG
p1298
I1297
sVDGK
p1299
I1298
sVKPP
p1300
I1299
sVPPQ
p1301
I1300
sVPQL
p1302
I1301
sVQLK
p1303
I1302
sVLKS
p1304
I1303
sVSGE
p1305
I1304
sVGEL
p1306
I1305
sVELA
p1307
I1306
sVAKR
p1308
I1307
sVKRS
p1309
I1308
sVRSE
p1310
I1309
sVSER
p1311
I1310
sVERR
p1312
I1311
sVRRA
p1313
I1312
sVRAE
p1314
I1313
sVAEA
p1315
I1314
sVAEK
p1316
I1315
sVEKQ
p1317
I1316
sVKQL
p1318
I1317
sVQLQ
p1319
I1318
sVLQQ
p1320
I1319
sVQQA
p1321
I1320
sVQAQ
p1322
I1321
sVAAG
p1323
I1322
sVAEQ
p1324
I1323
sVEQE
p1325
I1324
sVQEV
p1326
I1325
sVEKF
p1327
I1326
sVKFT
p1328
I1327
sVFTK
p1329
I1328
sVTKR
p1330
I1329
sVKRL
p1331
I1330
sVRLV
p1332
I1331
sVVKV
p1333
I1332
sVKVT
p1334
I1333
sVVTK
p1335
I1334
sVTKQ
p1336
I1335
sVKQH
p1337
I1336
sVQHN
p1338
I1337
sVHND
p1339
I1338
sVNDE
p1340
I1339
sVDEC
p1341
I1340
sVECK
p1342
I1341
sVCKH
p1343
I1342
sVKHL
p1344
I1343
sVHLL
p1345
I1344
sVLLS
p1346
I1345
sVSLM
p1347
I1346
sVGIP
p1348
I1347
sVIPY
p1349
I1348
sVPYL
p1350
I1349
sVYLD
p1351
I1350
sVLDA
p1352
I1351
sVDAP
p1353
I1352
sVPSE
p1354
I1353
sVSEA
p1355
I1354
sVASC
p1356
I1355
sVSCA
p1357
I1356
sVCAA
p1358
I1357
sVALV
p1359
I1358
sVVKA
p1360
I1359
sVKAG
p1361
I1360
sVAGK
p1362
I1361
sVGKV
p1363
I1362
sVKVY
p1364
I1363
sVVYA
p1365
I1364
sVYAA
p1366
I1365
sVATE
p1367
I1366
sVTED
p1368
I1367
sVEDM
p1369
I1368
sVDMD
p1370
I1369
sVMDC
p1371
I1370
sVCLT
p1372
I1371
sVFGS
p1373
I1372
sVSPV
p1374
I1373
sVPVL
p1375
I1374
sVVLM
p1376
I1375
sVLMR
p1377
I1376
sVMRH
p1378
I1377
sVRHL
p1379
I1378
sVHLT
p1380
I1379
sVASE
p1381
I1380
sVEAK
p1382
I1381
sVKKL
p1383
I1382
sVPIQ
p1384
I1383
sVQEF
p1385
I1384
sVEFH
p1386
I1385
sVFHL
p1387
I1386
sVHLS
p1388
I1387
sVLSR
p1389
I1388
sVLQE
p1390
I1389
sVELG
p1391
I1390
sVGLN
p1392
I1391
sVNQE
p1393
I1392
sVQEQ
p1394
I1393
sVQFV
p1395
I1394
sVFVD
p1396
I1395
sVDLC
p1397
I1396
sVLCI
p1398
I1397
sVCIL
p1399
I1398
sVILL
p1400
I1399
sVGSD
p1401
I1400
sVSDY
p1402
I1401
sVDYC
p1403
I1402
sVYCE
p1404
I1403
sVCES
p1405
I1404
sVIRG
p1406
I1405
sVRGI
p1407
I1406
sVIGP
p1408
I1407
sVGPK
p1409
I1408
sVKRA
p1410
I1409
sVRAV
p1411
I1410
sVAVD
p1412
I1411
sVDLI
p1413
I1412
sVIQK
p1414
I1413
sVQKH
p1415
I1414
sVKHK
p1416
I1415
sVHKS
p1417
I1416
sVKSI
p1418
I1417
sVSIE
p1419
I1418
sVIEE
p1420
I1419
sVEEI
p1421
I1420
sVIVR
p1422
I1421
sVVRR
p1423
I1422
sVRRL
p1424
I1423
sVRLD
p1425
I1424
sVLDP
p1426
I1425
sVDPN
p1427
I1426
sVPNK
p1428
I1427
sVNKY
p1429
I1428
sVKYP
p1430
I1429
sVYPV
p1431
I1430
sVPVP
p1432
I1431
sVPEN
p1433
I1432
sVNWL
p1434
I1433
sVWLH
p1435
I1434
sVLHK
p1436
I1435
sVHKE
p1437
I1436
sVEAH
p1438
I1437
sVAHQ
p1439
I1438
sVQLF
p1440
I1439
sVFLE
p1441
I1440
sVEVL
p1442
I1441
sVDPE
p1443
I1442
sVESV
p1444
I1443
sVSVE
p1445
I1444
sVVEL
p1446
I1445
sVLKW
p1447
I1446
sVKWS
p1448
I1447
sVWSE
p1449
I1448
sVSEP
p1450
I1449
sVEPN
p1451
I1450
sVPNE
p1452
I1451
sVELI
p1453
I1452
sVIKF
p1454
I1453
sVKFM
p1455
I1454
sVFMC
p1456
I1455
sVMCG
p1457
I1456
sVCGE
p1458
I1457
sVGEK
p1459
I1458
sVKQF
p1460
I1459
sVQFS
p1461
I1460
sVSEE
p1462
I1461
sVEER
p1463
I1462
sVERI
p1464
I1463
sVRIR
p1465
I1464
sVIRS
p1466
I1465
sVGVK
p1467
I1466
sVVKR
p1468
I1467
sVLSK
p1469
I1468
sVSKS
p1470
I1469
sVSRQ
p1471
I1470
sVQGS
p1472
I1471
sVGST
p1473
I1472
sVSTQ
p1474
I1473
sVQGR
p1475
I1474
sVGRL
p1476
I1475
sVLDD
p1477
I1476
sVDDF
p1478
I1477
sVDFF
p1479
I1478
sVFFK
p1480
I1479
sVVTG
p1481
I1480
sVSSA
p1482
I1481
sVSAK
p1483
I1482
sVKEP
p1484
I1483
sVPEP
p1485
I1484
sVEPK
p1486
I1485
sVPKG
p1487
I1486
sVTKK
p1488
I1487
sVKKK
p1489
I1488
sVKKA
p1490
I1489
sVAKT
p1491
I1490
sVKTG
p1492
I1491
sVTGA
p1493
I1492
sVGKF
p1494
I1493
sVKFK
p1495
I1494
sVKRG
p1496
I1495
sVRGK
p1497
I1496
sVGK=
p1498
I1497
sV-MA
p1499
I1498
sVMAT
p1500
I1499
sVAEV
p1501
I1500
sVVLN
p1502
I1501
sVLNI
p1503
I1502
sVNIG
p1504
I1503
sVIGK
p1505
I1504
sVKLY
p1506
I1505
sVLYE
p1507
I1506
sVYEG
p1508
I1507
sVEGK
p1509
I1508
sVGKT
p1510
I1509
sVKTK
p1511
I1510
sVTKE
p1512
I1511
sVEVY
p1513
I1512
sVVYE
p1514
I1513
sVYEL
p1515
I1514
sVELL
p1516
I1515
sVLLD
p1517
I1516
sVLDS
p1518
I1517
sVDSP
p1519
I1518
sVSPG
p1520
I1519
sVPGK
p1521
I1520
sVLQS
p1522
I1521
sVQSK
p1523
I1522
sVSKD
p1524
I1523
sVKDQ
p1525
I1524
sVDQI
p1526
I1525
sVQIT
p1527
I1526
sVGNA
p1528
I1527
sVAAR
p1529
I1528
sVARK
p1530
I1529
sVRKN
p1531
I1530
sVKNH
p1532
I1531
sVHLE
p1533
I1532
sVLEG
p1534
I1533
sVGKA
p1535
I1534
sVKAA
p1536
I1535
sVAIS
p1537
I1536
sVISN
p1538
I1537
sVNKI
p1539
I1538
sVITS
p1540
I1539
sVTSC
p1541
I1540
sVSCI
p1542
I1541
sVCIF
p1543
I1542
sVIFQ
p1544
I1543
sVQLL
p1545
I1544
sVQEA
p1546
I1545
sVEAG
p1547
I1546
sVIKT
p1548
I1547
sVTAF
p1549
I1548
sVAFT
p1550
I1549
sVFTR
p1551
I1550
sVTRK
p1552
I1551
sVRKC
p1553
I1552
sVKCG
p1554
I1553
sVETA
p1555
I1554
sVAFI
p1556
I1555
sVFIA
p1557
I1556
sVIAP
p1558
I1557
sVAPQ
p1559
I1558
sVPQC
p1560
I1559
sVQCE
p1561
I1560
sVCEM
p1562
I1561
sVMIP
p1563
I1562
sVIPI
p1564
I1563
sVPIE
p1565
I1564
sVIEW
p1566
I1565
sVWVC
p1567
I1566
sVVCR
p1568
I1567
sVCRR
p1569
I1568
sVRRI
p1570
I1569
sVRIA
p1571
I1570
sVIAT
p1572
I1571
sVGSF
p1573
I1572
sVFLK
p1574
I1573
sVLKR
p1575
I1574
sVKRN
p1576
I1575
sVRNP
p1577
I1576
sVNPG
p1578
I1577
sVPGV
p1579
I1578
sVKEG
p1580
I1579
sVEGY
p1581
I1580
sVGYK
p1582
I1581
sVYKF
p1583
I1582
sVKFY
p1584
I1583
sVFYP
p1585
I1584
sVYPP
p1586
I1585
sVKVE
p1587
I1586
sVLFF
p1588
I1587
sVFKD
p1589
I1588
sVKDD
p1590
I1589
sVDDA
p1591
I1590
sVDAN
p1592
I1591
sVANN
p1593
I1592
sVNND
p1594
I1593
sVNDP
p1595
I1594
sVDPQ
p1596
I1595
sVQWS
p1597
I1596
sVEEQ
p1598
I1597
sVEQL
p1599
I1598
sVQLI
p1600
I1599
sVIAA
p1601
I1600
sVAAK
p1602
I1601
sVKFC
p1603
I1602
sVFCF
p1604
I1603
sVCFA
p1605
I1604
sVFAG
p1606
I1605
sVAGL
p1607
I1606
sVGLL
p1608
I1607
sVIGQ
p1609
I1608
sVGQT
p1610
I1609
sVQTE
p1611
I1610
sVDIM
p1612
I1611
sVMSH
p1613
I1612
sVSHA
p1614
I1613
sVHAT
p1615
I1614
sVATQ
p1616
I1615
sVQAI
p1617
I1616
sVAIF
p1618
I1617
sVFEI
p1619
I1618
sVLEK
p1620
I1619
sVEKS
p1621
I1620
sVKSW
p1622
I1621
sVSWL
p1623
I1622
sVWLP
p1624
I1623
sVLPQ
p1625
I1624
sVPQN
p1626
I1625
sVQNC
p1627
I1626
sVNCT
p1628
I1627
sVCTL
p1629
I1628
sVTLV
p1630
I1629
sVVDM
p1631
I1630
sVDMK
p1632
I1631
sVMKI
p1633
I1632
sVKIE
p1634
I1633
sVIEF
p1635
I1634
sVDVT
p1636
I1635
sVTTK
p1637
I1636
sVIVL
p1638
I1637
sVDVI
p1639
I1638
sVVID
p1640
I1639
sVNDS
p1641
I1640
sVDSW
p1642
I1641
sVSWR
p1643
I1642
sVWRL
p1644
I1643
sVRLW
p1645
I1644
sVLWP
p1646
I1645
sVWPS
p1647
I1646
sVPSG
p1648
I1647
sVSGD
p1649
I1648
sVGDR
p1650
I1649
sVDRS
p1651
I1650
sVRSQ
p1652
I1651
sVQQK
p1653
I1652
sVQKD
p1654
I1653
sVKDK
p1655
I1654
sVDKQ
p1656
I1655
sVKQS
p1657
I1656
sVQSY
p1658
I1657
sVSYR
p1659
I1658
sVRDL
p1660
I1659
sVDLK
p1661
I1660
sVEVT
p1662
I1661
sVVTP
p1663
I1662
sVPEG
p1664
I1663
sVEGL
p1665
I1664
sVGLQ
p1666
I1665
sVLQM
p1667
I1666
sVQMV
p1668
I1667
sVMVK
p1669
I1668
sVVKK
p1670
I1669
sVKKN
p1671
I1670
sVKNF
p1672
I1671
sVNFE
p1673
I1672
sVFEW
p1674
I1673
sVWVA
p1675
I1674
sVVAE
p1676
I1675
sVAER
p1677
I1676
sVERV
p1678
I1677
sVRVE
p1679
I1678
sVLLK
p1680
I1679
sVKSE
p1681
I1680
sVSES
p1682
I1681
sVESQ
p1683
I1682
sVSQC
p1684
I1683
sVQCR
p1685
I1684
sVVVL
p1686
I1685
sVMGS
p1687
I1686
sVSTS
p1688
I1687
sVTSD
p1689
I1688
sVDLG
p1690
I1689
sVLGH
p1691
I1690
sVGHC
p1692
I1691
sVHCE
p1693
I1692
sVCEK
p1694
I1693
sVEKI
p1695
I1694
sVKIK
p1696
I1695
sVKAC
p1697
I1696
sVACG
p1698
I1697
sVGNF
p1699
I1698
sVNFG
p1700
I1699
sVIPC
p1701
I1700
sVPCE
p1702
I1701
sVCEL
p1703
I1702
sVELR
p1704
I1703
sVLRV
p1705
I1704
sVRVT
p1706
I1705
sVVTS
p1707
I1706
sVTSA
p1708
I1707
sVSAH
p1709
I1708
sVAHK
p1710
I1709
sVHKG
p1711
I1710
sVKGP
p1712
I1711
sVGPD
p1713
I1712
sVPDE
p1714
I1713
sVTLR
p1715
I1714
sVLRI
p1716
I1715
sVIKA
p1717
I1716
sVKAE
p1718
I1717
sVAEY
p1719
I1718
sVEYE
p1720
I1719
sVEGD
p1721
I1720
sVGDG
p1722
I1721
sVDGI
p1723
I1722
sVIPT
p1724
I1723
sVTVF
p1725
I1724
sVVFV
p1726
I1725
sVFVA
p1727
I1726
sVAVA
p1728
I1727
sVVAG
p1729
I1728
sVAGR
p1730
I1729
sVRSN
p1731
I1730
sVSNG
p1732
I1731
sVNGL
p1733
I1732
sVLGP
p1734
I1733
sVPVM
p1735
I1734
sVVMS
p1736
I1735
sVSGN
p1737
I1736
sVGNT
p1738
I1737
sVNTA
p1739
I1738
sVTAY
p1740
I1739
sVAYP
p1741
I1740
sVPVI
p1742
I1741
sVISC
p1743
I1742
sVSCP
p1744
I1743
sVCPP
p1745
I1744
sVPPL
p1746
I1745
sVLTP
p1747
I1746
sVTPD
p1748
I1747
sVPDW
p1749
I1748
sVDWG
p1750
I1749
sVWGV
p1751
I1750
sVGVQ
p1752
I1751
sVQDV
p1753
I1752
sVDVW
p1754
I1753
sVVWS
p1755
I1754
sVWSS
p1756
I1755
sVSSL
p1757
I1756
sVLRL
p1758
I1757
sVRLP
p1759
I1758
sVLPS
p1760
I1759
sVSGL
p1761
I1760
sVLGC
p1762
I1761
sVGCS
p1763
I1762
sVCST
p1764
I1763
sVEGS
p1765
I1764
sVSAQ
p1766
I1765
sVAQF
p1767
I1766
sVQFA
p1768
I1767
sVFAA
p1769
I1768
sVAAQ
p1770
I1769
sVAQI
p1771
I1770
sVFGL
p1772
I1771
sVGLS
p1773
I1772
sVLSN
p1774
I1773
sVSNH
p1775
I1774
sVLVW
p1776
I1775
sVWSK
p1777
I1776
sVSKL
p1778
I1777
sVKLR
p1779
I1778
sVRAS
p1780
I1779
sVASI
p1781
I1780
sVSIL
p1782
I1781
sVLNT
p1783
I1782
sVNTW
p1784
I1783
sVTWI
p1785
I1784
sVWIS
p1786
I1785
sVLKQ
p1787
I1786
sVKQA
p1788
I1787
sVQAD
p1789
I1788
sVADK
p1790
I1789
sVDKK
p1791
I1790
sVKKI
p1792
I1791
sVREC
p1793
I1792
sVECN
p1794
I1793
sVCNL
p1795
I1794
sVNL=
p1796
I1795
sVASV
p1797
I1796
sVSVA
p1798
I1797
sVARR
p1799
I1798
sVRLR
p1800
I1799
sVIRR
p1801
I1800
sVRRS
p1802
I1801
sVRSP
p1803
I1802
sVPAW
p1804
I1803
sVAWR
p1805
I1804
sVWRG
p1806
I1805
sVSHR
p1807
I1806
sVHRP
p1808
I1807
sVRPL
p1809
I1808
sVPLS
p1810
I1809
sVSSE
p1811
I1810
sVPPA
p1812
I1811
sVPAA
p1813
I1812
sVASA
p1814
I1813
sVSAV
p1815
I1814
sVVRA
p1816
I1815
sVRAA
p1817
I1816
sVNFF
p1818
I1817
sVFFR
p1819
I1818
sVFRD
p1820
I1819
sVRDR
p1821
I1820
sVDRH
p1822
I1821
sVHGH
p1823
I1822
sVGHR
p1824
I1823
sVHRL
p1825
I1824
sVLVP
p1826
I1825
sVSAS
p1827
I1826
sVVRP
p1828
I1827
sVRPR
p1829
I1828
sVRGD
p1830
I1829
sVGDP
p1831
I1830
sVSLL
p1832
I1831
sVLLF
p1833
I1832
sVLFV
p1834
I1833
sVFVN
p1835
I1834
sVVNA
p1836
I1835
sVNAG
p1837
I1836
sVAGM
p1838
I1837
sVGMN
p1839
I1838
sVMNQ
p1840
I1839
sVNQF
p1841
I1840
sVQFK
p1842
I1841
sVFKP
p1843
I1842
sVKPI
p1844
I1843
sVPIF
p1845
I1844
sVIFL
p1846
I1845
sVFLG
p1847
I1846
sVLGT
p1848
I1847
sVGTV
p1849
I1848
sVTVD
p1850
I1849
sVVDP
p1851
I1850
sVPRS
p1852
I1851
sVSEM
p1853
I1852
sVAGF
p1854
I1853
sVGFR
p1855
I1854
sVVAN
p1856
I1855
sVANS
p1857
I1856
sVNSQ
p1858
I1857
sVSQK
p1859
I1858
sVQKC
p1860
I1859
sVKCV
p1861
I1860
sVCVR
p1862
I1861
sVRAG
p1863
I1862
sVGGH
p1864
I1863
sVGHH
p1865
I1864
sVHHN
p1866
I1865
sVLED
p1867
I1866
sVEDV
p1868
I1867
sVDVG
p1869
I1868
sVVGR
p1870
I1869
sVGRD
p1871
I1870
sVSHH
p1872
I1871
sVHHT
p1873
I1872
sVHTF
p1874
I1873
sVTFF
p1875
I1874
sVFFE
p1876
I1875
sVFEM
p1877
I1876
sVEML
p1878
I1877
sVMLG
p1879
I1878
sVLGN
p1880
I1879
sVGNW
p1881
I1880
sVWAF
p1882
I1881
sVAFG
p1883
I1882
sVGGE
p1884
I1883
sVGEY
p1885
I1884
sVEYF
p1886
I1885
sVYFK
p1887
I1886
sVFKE
p1888
I1887
sVEAC
p1889
I1888
sVACN
p1890
I1889
sVCNM
p1891
I1890
sVMAW
p1892
I1891
sVAWE
p1893
I1892
sVWEL
p1894
I1893
sVLLT
p1895
I1894
sVTQV
p1896
I1895
sVQVY
p1897
I1896
sVVYG
p1898
I1897
sVIPE
p1899
I1898
sVPEE
p1900
I1899
sVLWI
p1901
I1900
sVISY
p1902
I1901
sVYFD
p1903
I1902
sVDGD
p1904
I1903
sVDPK
p1905
I1904
sVPKA
p1906
I1905
sVGLD
p1907
I1906
sVDPD
p1908
I1907
sVPDL
p1909
I1908
sVLET
p1910
I1909
sVTRD
p1911
I1910
sVRDI
p1912
I1911
sVDIW
p1913
I1912
sVIWL
p1914
I1913
sVWLS
p1915
I1914
sVLGV
p1916
I1915
sVASR
p1917
I1916
sVRVL
p1918
I1917
sVLSF
p1919
I1918
sVSFG
p1920
I1919
sVFGP
p1921
I1920
sVGPQ
p1922
I1921
sVPQE
p1923
I1922
sVQEN
p1924
I1923
sVENF
p1925
I1924
sVNFW
p1926
I1925
sVEMG
p1927
I1926
sVGDT
p1928
I1927
sVDTG
p1929
I1928
sVGPC
p1930
I1929
sVPCG
p1931
I1930
sVCGP
p1932
I1931
sVPCT
p1933
I1932
sVCTE
p1934
I1933
sVTEI
p1935
I1934
sVEIH
p1936
I1935
sVIHY
p1937
I1936
sVHYD
p1938
I1937
sVYDL
p1939
I1938
sVDLA
p1940
I1939
sVGVG
p1941
I1940
sVVGA
p1942
I1941
sVGAP
p1943
I1942
sVELW
p1944
I1943
sVLWN
p1945
I1944
sVWNL
p1946
I1945
sVNLV
p1947
I1946
sVLVF
p1948
I1947
sVVFM
p1949
I1948
sVFMQ
p1950
I1949
sVMQH
p1951
I1950
sVHNR
p1952
I1951
sVNRE
p1953
I1952
sVREA
p1954
I1953
sVEAD
p1955
I1954
sVADG
p1956
I1955
sVDGS
p1957
I1956
sVSLQ
p1958
I1957
sVPQR
p1959
I1958
sVQRH
p1960
I1959
sVRHV
p1961
I1960
sVHVD
p1962
I1961
sVVDT
p1963
I1962
sVGLE
p1964
I1963
sVLER
p1965
I1964
sVLVA
p1966
I1965
sVAVL
p1967
I1966
sVQGK
p1968
I1967
sVGKH
p1969
I1968
sVKHS
p1970
I1969
sVHST
p1971
I1970
sVSTY
p1972
I1971
sVTYD
p1973
I1972
sVYDT
p1974
I1973
sVDTD
p1975
I1974
sVTDL
p1976
I1975
sVLFS
p1977
I1976
sVPLL
p1978
I1977
sVLLN
p1979
I1978
sVNAI
p1980
I1979
sVIQQ
p1981
I1980
sVQQG
p1982
I1981
sVQGC
p1983
I1982
sVGCR
p1984
I1983
sVCRA
p1985
I1984
sVRAP
p1986
I1985
sVAPP
p1987
I1986
sVPPY
p1988
I1987
sVGRV
p1989
I1988
sVVGV
p1990
I1989
sVGVA
p1991
I1990
sVVAD
p1992
I1991
sVADE
p1993
I1992
sVDEG
p1994
I1993
sVEGR
p1995
I1994
sVGRT
p1996
I1995
sVRTD
p1997
I1996
sVTDT
p1998
I1997
sVDTA
p1999
I1998
sVAYR
p2000
I1999
sVYRV
p2001
I2000
sVVVA
p2002
I2001
sVADH
p2003
I2002
sVDHI
p2004
I2003
sVHIR
p2005
I2004
sVIRT
p2006
I2005
sVSVC
p2007
I2006
sVVCI
p2008
I2007
sVCIS
p2009
I2008
sVSDG
p2010
I2009
sVGIF
p2011
I2010
sVIFP
p2012
I2011
sVPGM
p2013
I2012
sVGMS
p2014
I2013
sVGPP
p2015
I2014
sVVLR
p2016
I2015
sVVRF
p2017
I2016
sVFSM
p2018
I2017
sVSME
p2019
I2018
sVMEI
p2020
I2019
sVILK
p2021
I2020
sVLKA
p2022
I2021
sVKAP
p2023
I2022
sVPPG
p2024
I2023
sVGFL
p2025
I2024
sVSLV
p2026
I2025
sVVPV
p2027
I2026
sVVET
p2028
I2027
sVTLG
p2029
I2028
sVGDA
p2030
I2029
sVDAY
p2031
I2030
sVYPE
p2032
I2031
sVELQ
p2033
I2032
sVLQR
p2034
I2033
sVQRN
p2035
I2034
sVRNS
p2036
I2035
sVNSA
p2037
I2036
sVQIA
p2038
I2037
sVIAN
p2039
I2038
sVANL
p2040
I2039
sVEDE
p2041
I2040
sVDEA
p2042
I2041
sVEAA
p2043
I2042
sVFLA
p2044
I2043
sVLAS
p2045
I2044
sVERG
p2046
I2045
sVRII
p2047
I2046
sVIID
p2048
I2047
sVIDR
p2049
I2048
sVDRT
p2050
I2049
sVLRT
p2051
I2050
sVGPS
p2052
I2051
sVPSD
p2053
I2052
sVSDM
p2054
I2053
sVDMF
p2055
I2054
sVMFP
p2056
I2055
sVFPA
p2057
I2056
sVPAE
p2058
I2057
sVEVA
p2059
I2058
sVVAW
p2060
I2059
sVAWS
p2061
I2060
sVSLC
p2062
I2061
sVCGD
p2063
I2062
sVLPL
p2064
I2063
sVLDM
p2065
I2064
sVDMV
p2066
I2065
sVMVE
p2067
I2066
sVELM
p2068
I2067
sVLML
p2069
I2068
sVMLE
p2070
I2069
sVKGV
p2071
I2070
sVVQL
p2072
I2071
sVDSA
p2073
I2072
sVRLA
p2074
I2073
sVLAQ
p2075
I2074
sVAQE
p2076
I2075
sVQEE
p2077
I2076
sVAQH
p2078
I2077
sVQHR
p2079
I2078
sVHRA
p2080
I2079
sVRAR
p2081
I2080
sVARQ
p2082
I2081
sVRQA
p2083
I2082
sVQAE
p2084
I2083
sVAEP
p2085
I2084
sVEPV
p2086
I2085
sVPVQ
p2087
I2086
sVVQK
p2088
I2087
sVQKQ
p2089
I2088
sVKQG
p2090
I2089
sVGLW
p2091
I2090
sVLWL
p2092
I2091
sVWLD
p2093
I2092
sVDVH
p2094
I2093
sVVHA
p2095
I2094
sVLGE
p2096
I2095
sVQRQ
p2097
I2096
sVQGV
p2098
I2097
sVVPP
p2099
I2098
sVPPT
p2100
I2099
sVPTD
p2101
I2100
sVTDD
p2102
I2101
sVDDS
p2103
I2102
sVPKY
p2104
I2103
sVKYN
p2105
I2104
sVYNY
p2106
I2105
sVNYS
p2107
I2106
sVLRP
p2108
I2107
sVRPS
p2109
I2108
sVGSY
p2110
I2109
sVSYE
p2111
I2110
sVYEF
p2112
I2111
sVFGT
p2113
I2112
sVGTC
p2114
I2113
sVTCE
p2115
I2114
sVCEA
p2116
I2115
sVAQV
p2117
I2116
sVQVL
p2118
I2117
sVQLY
p2119
I2118
sVEDG
p2120
I2119
sVDGT
p2121
I2120
sVGTA
p2122
I2121
sVVAS
p2123
I2122
sVSVG
p2124
I2123
sVVGK
p2125
I2124
sVKGQ
p2126
I2125
sVGQR
p2127
I2126
sVQRC
p2128
I2127
sVRCG
p2129
I2128
sVCGL
p2130
I2129
sVRTN
p2131
I2130
sVTNF
p2132
I2131
sVNFY
p2133
I2132
sVFYA
p2134
I2133
sVYAE
p2135
I2134
sVEQG
p2136
I2135
sVGGQ
p2137
I2136
sVGQA
p2138
I2137
sVQAS
p2139
I2138
sVDRG
p2140
I2139
sVRGY
p2141
I2140
sVGYL
p2142
I2141
sVYLV
p2143
I2142
sVLVR
p2144
I2143
sVGQE
p2145
I2144
sVVLF
p2146
I2145
sVLFP
p2147
I2146
sVFPV
p2148
I2147
sVPVA
p2149
I2148
sVVAR
p2150
I2149
sVARA
p2151
I2150
sVRAQ
p2152
I2151
sVQVC
p2153
I2152
sVVCG
p2154
I2153
sVCGG
p2155
I2154
sVGGF
p2156
I2155
sVGFI
p2157
I2156
sVLHE
p2158
I2157
sVEAV
p2159
I2158
sVAPE
p2160
I2159
sVPEC
p2161
I2160
sVECL
p2162
I2161
sVRLG
p2163
I2162
sVGDQ
p2164
I2163
sVDQV
p2165
I2164
sVQVQ
p2166
I2165
sVQLH
p2167
I2166
sVEAW
p2168
I2167
sVGCM
p2169
I2168
sVCMA
p2170
I2169
sVMAK
p2171
I2170
sVAKH
p2172
I2171
sVKHT
p2173
I2172
sVHTA
p2174
I2173
sVTAT
p2175
I2174
sVATH
p2176
I2175
sVTHL
p2177
I2176
sVLNW
p2178
I2177
sVWAL
p2179
I2178
sVALR
p2180
I2179
sVLRQ
p2181
I2180
sVQTL
p2182
I2181
sVGTE
p2183
I2182
sVTEQ
p2184
I2183
sVEQQ
p2185
I2184
sVGSH
p2186
I2185
sVHLN
p2187
I2186
sVLNP
p2188
I2187
sVNPE
p2189
I2188
sVPEQ
p2190
I2189
sVTQT
p2191
I2190
sVQTP
p2192
I2191
sVTPL
p2193
I2192
sVAVE
p2194
I2193
sVNTV
p2195
I2194
sVTVQ
p2196
I2195
sVVQE
p2197
I2196
sVAVG
p2198
I2197
sVVGQ
p2199
I2198
sVGQD
p2200
I2199
sVQDE
p2201
I2200
sVAVY
p2202
I2201
sVVYM
p2203
I2202
sVYME
p2204
I2203
sVEEV
p2205
I2204
sVEVP
p2206
I2205
sVPLA
p2207
I2206
sVTAQ
p2208
I2207
sVQVP
p2209
I2208
sVVPG
p2210
I2209
sVGLR
p2211
I2210
sVLRS
p2212
I2211
sVRSL
p2213
I2212
sVSLD
p2214
I2213
sVLDE
p2215
I2214
sVDEV
p2216
I2215
sVVYP
p2217
I2216
sVPDP
p2218
I2217
sVDPV
p2219
I2218
sVPVR
p2220
I2219
sVVRV
p2221
I2220
sVVVS
p2222
I2221
sVVSV
p2223
I2222
sVVAH
p2224
I2223
sVAHA
p2225
I2224
sVALD
p2226
I2225
sVDPA
p2227
I2226
sVSQA
p2228
I2227
sVALQ
p2229
I2228
sVQTS
p2230
I2229
sVTSV
p2231
I2230
sVELC
p2232
I2231
sVLCC
p2233
I2232
sVCCG
p2234
I2233
sVCGT
p2235
I2234
sVGTH
p2236
I2235
sVLLR
p2237
I2236
sVRTG
p2238
I2237
sVGAV
p2239
I2238
sVVGD
p2240
I2239
sVLVI
p2241
I2240
sVVII
p2242
I2241
sVIIG
p2243
I2242
sVIGD
p2244
I2243
sVDRQ
p2245
I2244
sVQLS
p2246
I2245
sVSKG
p2247
I2246
sVKGT
p2248
I2247
sVGTT
p2249
I2248
sVTTR
p2250
I2249
sVTRL
p2251
I2250
sVRLL
p2252
I2251
sVGEQ
p2253
I2252
sVEQA
p2254
I2253
sVAQQ
p2255
I2254
sVQAR
p2256
I2255
sVARE
p2257
I2256
sVREL
p2258
I2257
sVLGQ
p2259
I2258
sVQSL
p2260
I2259
sVEVK
p2261
I2260
sVTER
p2262
I2261
sVGSR
p2263
I2262
sVSRD
p2264
I2263
sVKDI
p2265
I2264
sVDIG
p2266
I2265
sVRLI
p2267
I2266
sVLIE
p2268
I2267
sVIEA
p2269
I2268
sVAVM
p2270
I2269
sVVMP
p2271
I2270
sVMPQ
p2272
I2271
sVQWQ
p2273
I2272
sVWQR
p2274
I2273
sVQRR
p2275
I2274
sVRRE
p2276
I2275
sVLAT
p2277
I2276
sVTVK
p2278
I2277
sVVKM
p2279
I2278
sVKML
p2280
I2279
sVMLQ
p2281
I2280
sVRAN
p2282
I2281
sVANT
p2283
I2282
sVIRK
p2284
I2283
sVKLQ
p2285
I2284
sVQMG
p2286
I2285
sVMGQ
p2287
I2286
sVKKT
p2288
I2287
sVKTQ
p2289
I2288
sVERH
p2290
I2289
sVRHS
p2291
I2290
sVHSK
p2292
I2291
sVPLI
p2293
I2292
sVLIV
p2294
I2293
sVIVD
p2295
I2294
sVSAE
p2296
I2295
sVESL
p2297
I2296
sVVLV
p2298
I2297
sVKVV
p2299
I2298
sVQLC
p2300
I2299
sVLCE
p2301
I2300
sVCEQ
p2302
I2301
sVQAP
p2303
I2302
sVPST
p2304
I2303
sVSPQ
p2305
I2304
sVPQP
p2306
I2305
sVQPM
p2307
I2306
sVMGK
p2308
I2307
sVVLC
p2309
I2308
sVLCA
p2310
I2309
sVCAC
p2311
I2310
sVACQ
p2312
I2311
sVCQV
p2313
I2312
sVQVA
p2314
I2313
sVVAQ
p2315
I2314
sVAQG
p2316
I2315
sVQGA
p2317
I2316
sVGAM
p2318
I2317
sVAMP
p2319
I2318
sVMPT
p2320
I2319
sVTFT
p2321
I2320
sVAWA
p2322
I2321
sVALA
p2323
I2322
sVVCS
p2324
I2323
sVCSH
p2325
I2324
sVSHM
p2326
I2325
sVHMG
p2327
I2326
sVMGG
p2328
I2327
sVKAW
p2329
I2328
sVAWG
p2330
I2329
sVWGS
p2331
I2330
sVQGT
p2332
I2331
sVSTT
p2333
I2332
sVTTD
p2334
I2333
sVLEA
p2335
I2334
sVLSI
p2336
I2335
sVSIA
p2337
I2336
sVIAQ
p2338
I2337
sVAQT
p2339
I2338
sVQTY
p2340
I2339
sVTYA
p2341
I2340
sVYAL
p2342
I2341
sVLSQ
p2343
I2342
sVSQL
p2344
I2343
sVQL=
p2345
I2344
sV-MD
p2346
I2345
sVMDI
p2347
I2346
sVDIL
p2348
I2347
sVILC
p2349
I2348
sVCEE
p2350
I2349
sVEEN
p2351
I2350
sVNTS
p2352
I2351
sVTSL
p2353
I2352
sVSST
p2354
I2353
sVTTN
p2355
I2354
sVTNS
p2356
I2355
sVNSL
p2357
I2356
sVLMQ
p2358
I2357
sVMQL
p2359
I2358
sVLND
p2360
I2359
sVNDD
p2361
I2360
sVDDT
p2362
I2361
sVDTR
p2363
I2362
sVRLY
p2364
I2363
sVLYS
p2365
I2364
sVYSN
p2366
I2365
sVSND
p2367
I2366
sVNDF
p2368
I2367
sVDFN
p2369
I2368
sVNSG
p2370
I2369
sVGEA
p2371
I2370
sVEAN
p2372
I2371
sVSDA
p2373
I2372
sVDAF
p2374
I2373
sVAFN
p2375
I2374
sVFNW
p2376
I2375
sVNWT
p2377
I2376
sVWTV
p2378
I2377
sVDSE
p2379
I2378
sVSEN
p2380
I2379
sVENR
p2381
I2380
sVNRT
p2382
I2381
sVNLS
p2383
I2382
sVLSC
p2384
I2383
sVSCE
p2385
I2384
sVCEG
p2386
I2385
sVEGC
p2387
I2386
sVSPS
p2388
I2387
sVPSC
p2389
I2388
sVLLH
p2390
I2389
sVLHL
p2391
I2390
sVHLQ
p2392
I2391
sVQEK
p2393
I2392
sVEKN
p2394
I2393
sVKNW
p2395
I2394
sVWSA
p2396
I2395
sVSAL
p2397
I2396
sVAVV
p2398
I2397
sVVVI
p2399
I2398
sVIIL
p2400
I2399
sVLTI
p2401
I2400
sVTIA
p2402
I2401
sVIAG
p2403
I2402
sVGNI
p2404
I2403
sVNIL
p2405
I2404
sVVIM
p2406
I2405
sVIMA
p2407
I2406
sVAVS
p2408
I2407
sVVSL
p2409
I2408
sVEKK
p2410
I2409
sVQNA
p2411
I2410
sVATN
p2412
I2411
sVTNY
p2413
I2412
sVNYF
p2414
I2413
sVYFL
p2415
I2414
sVFLM
p2416
I2415
sVLMS
p2417
I2416
sVMSL
p2418
I2417
sVLAI
p2419
I2418
sVAIA
p2420
I2419
sVADM
p2421
I2420
sVDML
p2422
I2421
sVMLL
p2423
I2422
sVLGF
p2424
I2423
sVLVM
p2425
I2424
sVMPV
p2426
I2425
sVPVS
p2427
I2426
sVVSM
p2428
I2427
sVSML
p2429
I2428
sVMLT
p2430
I2429
sVILY
p2431
I2430
sVLYG
p2432
I2431
sVYGY
p2433
I2432
sVGYR
p2434
I2433
sVYRW
p2435
I2434
sVRWP
p2436
I2435
sVWPL
p2437
I2436
sVPSK
p2438
I2437
sVKLC
p2439
I2438
sVCAV
p2440
I2439
sVAVW
p2441
I2440
sVVWI
p2442
I2441
sVWIY
p2443
I2442
sVIYL
p2444
I2443
sVFST
p2445
I2444
sVSIM
p2446
I2445
sVIMH
p2447
I2446
sVMHL
p2448
I2447
sVHLC
p2449
I2448
sVCAI
p2450
I2449
sVDRY
p2451
I2450
sVRYV
p2452
I2451
sVYVA
p2453
I2452
sVIQN
p2454
I2453
sVQNP
p2455
I2454
sVNPI
p2456
I2455
sVPIH
p2457
I2456
sVIHH
p2458
I2457
sVHHS
p2459
I2458
sVSRF
p2460
I2459
sVRFN
p2461
I2460
sVNSR
p2462
I2461
sVSRT
p2463
I2462
sVRTK
p2464
I2463
sVTKA
p2465
I2464
sVKII
p2466
I2465
sVIIA
p2467
I2466
sVVWT
p2468
I2467
sVWTI
p2469
I2468
sVTIS
p2470
I2469
sVVGI
p2471
I2470
sVISM
p2472
I2471
sVSMP
p2473
I2472
sVMPI
p2474
I2473
sVPIP
p2475
I2474
sVIPV
p2476
I2475
sVPVF
p2477
I2476
sVLQD
p2478
I2477
sVQDD
p2479
I2478
sVDSK
p2480
I2479
sVSKV
p2481
I2480
sVKVF
p2482
I2481
sVVFK
p2483
I2482
sVGSC
p2484
I2483
sVADD
p2485
I2484
sVDDN
p2486
I2485
sVFVL
p2487
I2486
sVVLI
p2488
I2487
sVIGS
p2489
I2488
sVSFV
p2490
I2489
sVFVS
p2491
I2490
sVVSF
p2492
I2491
sVSFF
p2493
I2492
sVFFI
p2494
I2493
sVTIM
p2495
I2494
sVIMV
p2496
I2495
sVMVI
p2497
I2496
sVVIT
p2498
I2497
sVITY
p2499
I2498
sVTYF
p2500
I2499
sVFLT
p2501
I2500
sVTIK
p2502
I2501
sVKSL
p2503
I2502
sVTLC
p2504
I2503
sVLCV
p2505
I2504
sVCVS
p2506
I2505
sVGTR
p2507
I2506
sVTRA
p2508
I2507
sVFSF
p2509
I2508
sVPQS
p2510
I2509
sVQSS
p2511
I2510
sVSEK
p2512
I2511
sVEKL
p2513
I2512
sVKLF
p2514
I2513
sVLFQ
p2515
I2514
sVFQR
p2516
I2515
sVRSI
p2517
I2516
sVSIH
p2518
I2517
sVIHR
p2519
I2518
sVHRE
p2520
I2519
sVREP
p2521
I2520
sVPGS
p2522
I2521
sVSYT
p2523
I2522
sVTGR
p2524
I2523
sVRRT
p2525
I2524
sVRTM
p2526
I2525
sVTMQ
p2527
I2526
sVMQS
p2528
I2527
sVSIS
p2529
I2528
sVSNE
p2530
I2529
sVNEQ
p2531
I2530
sVQKA
p2532
I2531
sVACK
p2533
I2532
sVCKV
p2534
I2533
sVLGI
p2535
I2534
sVGIV
p2536
I2535
sVIVF
p2537
I2536
sVFVV
p2538
I2537
sVVMW
p2539
I2538
sVMWC
p2540
I2539
sVWCP
p2541
I2540
sVCPF
p2542
I2541
sVITN
p2543
I2542
sVTNI
p2544
I2543
sVNIM
p2545
I2544
sVVIC
p2546
I2545
sVICK
p2547
I2546
sVCKE
p2548
I2547
sVKES
p2549
I2548
sVSCN
p2550
I2549
sVCNE
p2551
I2550
sVNED
p2552
I2551
sVVIG
p2553
I2552
sVGAL
p2554
I2553
sVNVF
p2555
I2554
sVFVW
p2556
I2555
sVWIG
p2557
I2556
sVIGY
p2558
I2557
sVYLS
p2559
I2558
sVVNP
p2560
I2559
sVNPL
p2561
I2560
sVLVY
p2562
I2561
sVVYT
p2563
I2562
sVYTL
p2564
I2563
sVTLF
p2565
I2564
sVFNK
p2566
I2565
sVNKT
p2567
I2566
sVKTY
p2568
I2567
sVTYR
p2569
I2568
sVYRS
p2570
I2569
sVRSA
p2571
I2570
sVSAF
p2572
I2571
sVFSR
p2573
I2572
sVSRY
p2574
I2573
sVRYI
p2575
I2574
sVYIQ
p2576
I2575
sVIQC
p2577
I2576
sVQCQ
p2578
I2577
sVCQY
p2579
I2578
sVQYK
p2580
I2579
sVYKE
p2581
I2580
sVKEN
p2582
I2581
sVENK
p2583
I2582
sVNKK
p2584
I2583
sVKPL
p2585
I2584
sVLIL
p2586
I2585
sVVNT
p2587
I2586
sVNTI
p2588
I2587
sVTIP
p2589
I2588
sVIPA
p2590
I2589
sVPAL
p2591
I2590
sVAYK
p2592
I2591
sVYKS
p2593
I2592
sVSSQ
p2594
I2593
sVGQK
p2595
I2594
sVQKK
p2596
I2595
sVNSK
p2597
I2596
sVSKQ
p2598
I2597
sVKQD
p2599
I2598
sVKTT
p2600
I2599
sVTDN
p2601
I2600
sVNDC
p2602
I2601
sVDCS
p2603
I2602
sVCSM
p2604
I2603
sVMVA
p2605
I2604
sVVAL
p2606
I2605
sVLGK
p2607
I2606
sVGKQ
p2608
I2607
sVQHS
p2609
I2608
sVHSE
p2610
I2609
sVASK
p2611
I2610
sVKDN
p2612
I2611
sVDNS
p2613
I2612
sVNSD
p2614
I2613
sVDGV
p2615
I2614
sVVNE
p2616
I2615
sVNEK
p2617
I2616
sVEKV
p2618
I2617
sVVSC
p2619
I2618
sVSCV
p2620
I2619
sVCV=
p2621
I2620
sV-MV
p2622
I2621
sVMVG
p2623
I2622
sVSLN
p2624
I2623
sVLNC
p2625
I2624
sVNCI
p2626
I2625
sVCIV
p2627
I2626
sVIVA
p2628
I2627
sVVSQ
p2629
I2628
sVSQN
p2630
I2629
sVQNM
p2631
I2630
sVNMG
p2632
I2631
sVGKN
p2633
I2632
sVKNG
p2634
I2633
sVNGD
p2635
I2634
sVDLP
p2636
I2635
sVLPW
p2637
I2636
sVPWP
p2638
I2637
sVWPP
p2639
I2638
sVPLR
p2640
I2639
sVLRN
p2641
I2640
sVRNE
p2642
I2641
sVNEF
p2643
I2642
sVEFR
p2644
I2643
sVFRY
p2645
I2644
sVRYF
p2646
I2645
sVYFQ
p2647
I2646
sVQRM
p2648
I2647
sVMTT
p2649
I2648
sVTTT
p2650
I2649
sVTSS
p2651
I2650
sVVEG
p2652
I2651
sVKQN
p2653
I2652
sVQNL
p2654
I2653
sVKTW
p2655
I2654
sVTWF
p2656
I2655
sVWFS
p2657
I2656
sVFSI
p2658
I2657
sVNRP
p2659
I2658
sVPLK
p2660
I2659
sVLKG
p2661
I2660
sVKGR
p2662
I2661
sVGRI
p2663
I2662
sVRIN
p2664
I2663
sVINL
p2665
I2664
sVSRE
p2666
I2665
sVPQG
p2667
I2666
sVGAH
p2668
I2667
sVAHF
p2669
I2668
sVHFL
p2670
I2669
sVSRS
p2671
I2670
sVDAL
p2672
I2671
sVLTE
p2673
I2672
sVEQP
p2674
I2673
sVQPE
p2675
I2674
sVLAN
p2676
I2675
sVANK
p2677
I2676
sVNKV
p2678
I2677
sVKVD
p2679
I2678
sVWIV
p2680
I2679
sVIVG
p2681
I2680
sVVYK
p2682
I2681
sVEAM
p2683
I2682
sVAMN
p2684
I2683
sVMNH
p2685
I2684
sVNHP
p2686
I2685
sVHPG
p2687
I2686
sVPGH
p2688
I2687
sVGHL
p2689
I2688
sVHLK
p2690
I2689
sVFVT
p2691
I2690
sVVTR
p2692
I2691
sVTRI
p2693
I2692
sVIMQ
p2694
I2693
sVMQD
p2695
I2694
sVQDF
p2696
I2695
sVDFE
p2697
I2696
sVFES
p2698
I2697
sVESD
p2699
I2698
sVDTF
p2700
I2699
sVFPE
p2701
I2700
sVPEI
p2702
I2701
sVEID
p2703
I2702
sVIDL
p2704
I2703
sVEKY
p2705
I2704
sVKYK
p2706
I2705
sVYKL
p2707
I2706
sVKLL
p2708
I2707
sVLLP
p2709
I2708
sVPEY
p2710
I2709
sVYPG
p2711
I2710
sVGVL
p2712
I2711
sVSDV
p2713
I2712
sVDVQ
p2714
I2713
sVKGI
p2715
I2714
sVIKY
p2716
I2715
sVKFE
p2717
I2716
sVFEV
p2718
I2717
sVYEK
p2719
I2718
sVKND
p2720
I2719
sVND=
p2721
I2720
sVMTM
p2722
I2721
sVTMT
p2723
I2722
sVMTL
p2724
I2723
sVTLH
p2725
I2724
sVLHT
p2726
I2725
sVHTK
p2727
I2726
sVGMA
p2728
I2727
sVMAL
p2729
I2728
sVHQI
p2730
I2729
sVQIQ
p2731
I2730
sVQGN
p2732
I2731
sVGNE
p2733
I2732
sVNEL
p2734
I2733
sVEPL
p2735
I2734
sVRPQ
p2736
I2735
sVKIP
p2737
I2736
sVPLE
p2738
I2737
sVERP
p2739
I2738
sVPLG
p2740
I2739
sVVYL
p2741
I2740
sVSKP
p2742
I2741
sVKPA
p2743
I2742
sVPAV
p2744
I2743
sVNYP
p2745
I2744
sVAAY
p2746
I2745
sVAYE
p2747
I2746
sVEFN
p2748
I2747
sVFNA
p2749
I2748
sVAAN
p2750
I2749
sVANA
p2751
I2750
sVNAQ
p2752
I2751
sVYGQ
p2753
I2752
sVTGL
p2754
I2753
sVLPY
p2755
I2754
sVYGP
p2756
I2755
sVGSE
p2757
I2756
sVGSN
p2758
I2757
sVGFP
p2759
I2758
sVFPP
p2760
I2759
sVLNS
p2761
I2760
sVNSV
p2762
I2761
sVSVS
p2763
I2762
sVPLM
p2764
I2763
sVLHP
p2765
I2764
sVFLQ
p2766
I2765
sVHGQ
p2767
I2766
sVGQQ
p2768
I2767
sVVPY
p2769
I2768
sVPYY
p2770
I2769
sVYYL
p2771
I2770
sVYLE
p2772
I2771
sVENE
p2773
I2772
sVNEP
p2774
I2773
sVSGY
p2775
I2774
sVGYT
p2776
I2775
sVAGP
p2777
I2776
sVPAF
p2778
I2777
sVAFY
p2779
I2778
sVYRP
p2780
I2779
sVRPN
p2781
I2780
sVPNS
p2782
I2781
sVSDN
p2783
I2782
sVDNR
p2784
I2783
sVNRR
p2785
I2784
sVRRQ
p2786
I2785
sVGGR
p2787
I2786
sVGRE
p2788
I2787
sVRER
p2789
I2788
sVSTN
p2790
I2789
sVTND
p2791
I2790
sVNDK
p2792
I2791
sVDKG
p2793
I2792
sVSMA
p2794
I2793
sVMAM
p2795
I2794
sVMES
p2796
I2795
sVESA
p2797
I2796
sVAKE
p2798
I2797
sVKET
p2799
I2798
sVTRY
p2800
I2799
sVRYC
p2801
I2800
sVYCA
p2802
I2801
sVCND
p2803
I2802
sVDYA
p2804
I2803
sVYAS
p2805
I2804
sVGYH
p2806
I2805
sVYHY
p2807
I2806
sVHYG
p2808
I2807
sVYGV
p2809
I2808
sVGVW
p2810
I2809
sVWSC
p2811
I2810
sVGCK
p2812
I2811
sVCKA
p2813
I2812
sVAFF
p2814
I2813
sVSIQ
p2815
I2814
sVQGH
p2816
I2815
sVGHN
p2817
I2816
sVDYM
p2818
I2817
sVYMC
p2819
I2818
sVMCP
p2820
I2819
sVCPA
p2821
I2820
sVPAT
p2822
I2821
sVTNQ
p2823
I2822
sVNQC
p2824
I2823
sVQCT
p2825
I2824
sVCTI
p2826
I2825
sVTID
p2827
I2826
sVDKN
p2828
I2827
sVRKS
p2829
I2828
sVKSC
p2830
I2829
sVSCQ
p2831
I2830
sVCQA
p2832
I2831
sVQAC
p2833
I2832
sVACR
p2834
I2833
sVCRL
p2835
I2834
sVKCY
p2836
I2835
sVCYE
p2837
I2836
sVYEV
p2838
I2837
sVEVG
p2839
I2838
sVVGM
p2840
I2839
sVGMM
p2841
I2840
sVMMK
p2842
I2841
sVMKG
p2843
I2842
sVKGG
p2844
I2843
sVGGI
p2845
I2844
sVGIR
p2846
I2845
sVKDR
p2847
I2846
sVDRR
p2848
I2847
sVRRG
p2849
I2848
sVRGG
p2850
I2849
sVRML
p2851
I2850
sVMLK
p2852
I2851
sVLKH
p2853
I2852
sVHKR
p2854
I2853
sVKRQ
p2855
I2854
sVRQR
p2856
I2855
sVQRD
p2857
I2856
sVRDD
p2858
I2857
sVDDG
p2859
I2858
sVDGE
p2860
I2859
sVGRG
p2861
I2860
sVRGE
p2862
I2861
sVAGD
p2863
I2862
sVGDM
p2864
I2863
sVDMR
p2865
I2864
sVLMI
p2866
I2865
sVMIK
p2867
I2866
sVIKR
p2868
I2867
sVRSK
p2869
I2868
sVSKK
p2870
I2869
sVSLT
p2871
I2870
sVDQM
p2872
I2871
sVDAE
p2873
I2872
sVPPI
p2874
I2873
sVYSE
p2875
I2874
sVEYD
p2876
I2875
sVYDP
p2877
I2876
sVTRP
p2878
I2877
sVRPF
p2879
I2878
sVPFS
p2880
I2879
sVSMM
p2881
I2880
sVMMG
p2882
I2881
sVLTN
p2883
I2882
sVNLA
p2884
I2883
sVADR
p2885
I2884
sVDRE
p2886
I2885
sVLVH
p2887
I2886
sVVHM
p2888
I2887
sVHMI
p2889
I2888
sVMIN
p2890
I2889
sVINW
p2891
I2890
sVKRV
p2892
I2891
sVRVP
p2893
I2892
sVGFV
p2894
I2893
sVDLT
p2895
I2894
sVLHD
p2896
I2895
sVHDQ
p2897
I2896
sVQVH
p2898
I2897
sVVHL
p2899
I2898
sVLEC
p2900
I2899
sVECA
p2901
I2900
sVCAW
p2902
I2901
sVAWL
p2903
I2902
sVWLE
p2904
I2903
sVLEI
p2905
I2904
sVILM
p2906
I2905
sVMIG
p2907
I2906
sVIGL
p2908
I2907
sVVWR
p2909
I2908
sVWRS
p2910
I2909
sVRSM
p2911
I2910
sVMEH
p2912
I2911
sVEHP
p2913
I2912
sVGKL
p2914
I2913
sVLFA
p2915
I2914
sVAPN
p2916
I2915
sVPNL
p2917
I2916
sVDRN
p2918
I2917
sVRNQ
p2919
I2918
sVNQG
p2920
I2919
sVCVE
p2921
I2920
sVGMV
p2922
I2921
sVVEI
p2923
I2922
sVEIF
p2924
I2923
sVIFD
p2925
I2924
sVFDM
p2926
I2925
sVATS
p2927
I2926
sVSSR
p2928
I2927
sVRFR
p2929
I2928
sVMMN
p2930
I2929
sVMNL
p2931
I2930
sVQGE
p2932
I2931
sVEFV
p2933
I2932
sVFVC
p2934
I2933
sVVCL
p2935
I2934
sVCLK
p2936
I2935
sVSII
p2937
I2936
sVGVY
p2938
I2937
sVTFL
p2939
I2938
sVSTL
p2940
I2939
sVKDH
p2941
I2940
sVHIH
p2942
I2941
sVHRV
p2943
I2942
sVLDK
p2944
I2943
sVDKI
p2945
I2944
sVITD
p2946
I2945
sVDTL
p2947
I2946
sVLIH
p2948
I2947
sVIHL
p2949
I2948
sVLMA
p2950
I2949
sVGLT
p2951
I2950
sVTLQ
p2952
I2951
sVQQQ
p2953
I2952
sVQQH
p2954
I2953
sVQHQ
p2955
I2954
sVHQR
p2956
I2955
sVQRL
p2957
I2956
sVAQL
p2958
I2957
sVSHI
p2959
I2958
sVRHM
p2960
I2959
sVHMS
p2961
I2960
sVMSN
p2962
I2961
sVNKG
p2963
I2962
sVKGM
p2964
I2963
sVGME
p2965
I2964
sVEHL
p2966
I2965
sVHLY
p2967
I2966
sVYSM
p2968
I2967
sVMKC
p2969
I2968
sVKCK
p2970
I2969
sVCKN
p2971
I2970
sVKNV
p2972
I2971
sVNVV
p2973
I2972
sVPLY
p2974
I2973
sVDLL
p2975
I2974
sVMLD
p2976
I2975
sVDAH
p2977
I2976
sVAHR
p2978
I2977
sVLHA
p2979
I2978
sVHAP
p2980
I2979
sVAPT
p2981
I2980
sVPTS
p2982
I2981
sVGAS
p2983
I2982
sVETD
p2984
I2983
sVTDQ
p2985
I2984
sVDQS
p2986
I2985
sVQSH
p2987
I2986
sVHLA
p2988
I2987
sVAGS
p2989
I2988
sVSSH
p2990
I2989
sVSHS
p2991
I2990
sVQKY
p2992
I2991
sVKYY
p2993
I2992
sVYYI
p2994
I2993
sVYIT
p2995
I2994
sVAEG
p2996
I2995
sVEGF
p2997
I2996
sVTV=
p2998
I2997
sVMAP
p2999
I2998
sVPSR
p3000
I2999
sVSRK
p3001
I3000
sVKFF
p3002
I3001
sVFVG
p3003
I3002
sVGGN
p3004
I3003
sVNWK
p3005
I3004
sVWKM
p3006
I3005
sVKMN
p3007
I3006
sVMNG
p3008
I3007
sVNGR
p3009
I3008
sVRKQ
p3010
I3009
sVIGT
p3011
I3010
sVAKV
p3012
I3011
sVKVP
p3013
I3012
sVPAD
p3014
I3013
sVEVV
p3015
I3014
sVVVC
p3016
I3015
sVVCA
p3017
I3016
sVCAP
p3018
I3017
sVPTA
p3019
I3018
sVAYI
p3020
I3019
sVYID
p3021
I3020
sVIDF
p3022
I3021
sVDFA
p3023
I3022
sVFAR
p3024
I3023
sVRQK
p3025
I3024
sVQKL
p3026
I3025
sVKLD
p3027
I3026
sVPKI
p3028
I3027
sVKIA
p3029
I3028
sVAQN
p3030
I3029
sVNCY
p3031
I3030
sVCYK
p3032
I3031
sVYKV
p3033
I3032
sVVTN
p3034
I3033
sVTNG
p3035
I3034
sVNGA
p3036
I3035
sVGAF
p3037
I3036
sVFTG
p3038
I3037
sVGEI
p3039
I3038
sVISP
p3040
I3039
sVGMI
p3041
I3040
sVIKD
p3042
I3041
sVDCG
p3043
I3042
sVCGA
p3044
I3043
sVGAT
p3045
I3044
sVATW
p3046
I3045
sVTWV
p3047
I3046
sVWVV
p3048
I3047
sVGHS
p3049
I3048
sVRRH
p3050
I3049
sVHVF
p3051
I3050
sVGES
p3052
I3051
sVDEL
p3053
I3052
sVQKV
p3054
I3053
sVLAE
p3055
I3054
sVGVI
p3056
I3055
sVVIA
p3057
I3056
sVIAC
p3058
I3057
sVACI
p3059
I3058
sVCIG
p3060
I3059
sVIGE
p3061
I3060
sVDER
p3062
I3061
sVERE
p3063
I3062
sVITE
p3064
I3063
sVTEK
p3065
I3064
sVVVF
p3066
I3065
sVVFE
p3067
I3066
sVEQT
p3068
I3067
sVQTK
p3069
I3068
sVTKV
p3070
I3069
sVKVI
p3071
I3070
sVADN
p3072
I3071
sVDNV
p3073
I3072
sVVKD
p3074
I3073
sVKDW
p3075
I3074
sVDWS
p3076
I3075
sVYEP
p3077
I3076
sVPVW
p3078
I3077
sVVWA
p3079
I3078
sVWAI
p3080
I3079
sVAIG
p3081
I3080
sVTGK
p3082
I3081
sVTPQ
p3083
I3082
sVPQQ
p3084
I3083
sVEVH
p3085
I3084
sVVHE
p3086
I3085
sVHEK
p3087
I3086
sVRGW
p3088
I3087
sVGWL
p3089
I3088
sVWLK
p3090
I3089
sVKSN
p3091
I3090
sVSNV
p3092
I3091
sVNVS
p3093
I3092
sVDAV
p3094
I3093
sVQST
p3095
I3094
sVSTR
p3096
I3095
sVYGG
p3097
I3096
sVGSV
p3098
I3097
sVSVT
p3099
I3098
sVATC
p3100
I3099
sVTCK
p3101
I3100
sVSQP
p3102
I3101
sVQPD
p3103
I3102
sVPDV
p3104
I3103
sVDVD
p3105
I3104
sVVDG
p3106
I3105
sVDGF
p3107
I3106
sVLVG
p3108
I3107
sVLKP
p3109
I3108
sVPEF
p3110
I3109
sVDII
p3111
I3110
sVIIN
p3112
I3111
sVNAK
p3113
I3112
sVAKQ
p3114
I3113
sVKQ=
p3115
I3114
sVMVV
p3116
I3115
sVLGA
p3117
I3116
sVACA
p3118
I3117
sVCAR
p3119
I3118
sVGPA
p3120
I3119
sVGVF
p3121
I3120
sVVFC
p3122
I3121
sVFCH
p3123
I3122
sVCHT
p3124
I3123
sVHTD
p3125
I3124
sVKNL
p3126
I3125
sVEGT
p3127
I3126
sVTMK
p3128
I3127
sVMKV
p3129
I3128
sVVEV
p3130
I3129
sVLPA
p3131
I3130
sVLTD
p3132
I3131
sVDNY
p3133
I3132
sVNYM
p3134
I3133
sVYMY
p3135
I3134
sVMYL
p3136
I3135
sVIDD
p3137
I3136
sVDDE
p3138
I3137
sVETK
p3139
I3138
sVAIV
p3140
I3139
sVQPQ
p3141
I3140
sVVVD
p3142
I3141
sVVDA
p3143
I3142
sVDAA
p3144
I3143
sVRKH
p3145
I3144
sVKHG
p3146
I3145
sVHGV
p3147
I3146
sVVKL
p3148
I3147
sVTTV
p3149
I3148
sVTTH
p3150
I3149
sVTHH
p3151
I3150
sVHHH
p3152
I3151
sVHHW
p3153
I3152
sVHWD
p3154
I3153
sVWDH
p3155
I3154
sVHAG
p3156
I3155
sVKLV
p3157
I3156
sVKLE
p3158
I3157
sVLES
p3159
I3158
sVLKV
p3160
I3159
sVGDD
p3161
I3160
sVDDR
p3162
I3161
sVRIG
p3163
I3162
sVTHK
p3164
I3163
sVHKI
p3165
I3164
sVITH
p3166
I3165
sVLQV
p3167
I3166
sVQVG
p3168
I3167
sVVKC
p3169
I3168
sVKCL
p3170
I3169
sVTPC
p3171
I3170
sVPCH
p3172
I3171
sVHTS
p3173
I3172
sVTSG
p3174
I3173
sVSGH
p3175
I3174
sVGHI
p3176
I3175
sVHIC
p3177
I3176
sVICY
p3178
I3177
sVCYF
p3179
I3178
sVVSK
p3180
I3179
sVKPG
p3181
I3180
sVPGG
p3182
I3181
sVVFT
p3183
I3182
sVTGD
p3184
I3183
sVAGC
p3185
I3184
sVGCG
p3186
I3185
sVCGK
p3187
I3186
sVFYE
p3188
I3187
sVEMC
p3189
I3188
sVMCK
p3190
I3189
sVLEV
p3191
I3190
sVLPP
p3192
I3191
sVPPD
p3193
I3192
sVPDT
p3194
I3193
sVRVY
p3195
I3194
sVVYC
p3196
I3195
sVYCG
p3197
I3196
sVGHE
p3198
I3197
sVHEY
p3199
I3198
sVEYT
p3200
I3199
sVYTI
p3201
I3200
sVTIN
p3202
I3201
sVINN
p3203
I3202
sVNNL
p3204
I3203
sVLKF
p3205
I3204
sVKFA
p3206
I3205
sVARH
p3207
I3206
sVHVE
p3208
I3207
sVPGN
p3209
I3208
sVREK
p3210
I3209
sVKEK
p3211
I3210
sVKYS
p3212
I3211
sVYSI
p3213
I3212
sVSIG
p3214
I3213
sVEPT
p3215
I3214
sVTLA
p3216
I3215
sVFTY
p3217
I3216
sVTYN
p3218
I3217
sVYNP
p3219
I3218
sVNPF
p3220
I3219
sVPFM
p3221
I3220
sVFMR
p3222
I3221
sVMRV
p3223
I3222
sVRVR
p3224
I3223
sVEKT
p3225
I3224
sVKTV
p3226
I3225
sVVQQ
p3227
I3226
sVQHA
p3228
I3227
sVAGE
p3229
I3228
sVTDP
p3230
I3229
sVPVT
p3231
I3230
sVTTM
p3232
I3231
sVTMR
p3233
I3232
sVDQF
p3234
I3233
sVFKM
p3235
I3234
sVKMP
p3236
I3235
sVMPR
p3237
I3236
sVPRD
p3238
I3237
sVRD=
p3239
I3238
sVARL
p3240
I3239
sVLAP
p3241
I3240
sVPGP
p3242
I3241
sVPDS
p3243
I3242
sVDSF
p3244
I3243
sVSFK
p3245
I3244
sVPFT
p3246
I3245
sVFTP
p3247
I3246
sVANI
p3248
I3247
sVNIE
p3249
I3248
sVIER
p3250
I3249
sVIAE
p3251
I3250
sVESK
p3252
I3251
sVLKK
p3253
I3252
sVKAD
p3254
I3253
sVRED
p3255
I3254
sVEDD
p3256
I3255
sVEDS
p3257
I3256
sVPKP
p3258
I3257
sVKPN
p3259
I3258
sVLPF
p3260
I3259
sVFIY
p3261
I3260
sVGDI
p3262
I3261
sVAVP
p3263
I3262
sVDFD
p3264
I3263
sVFDP
p3265
I3264
sVDPY
p3266
I3265
sVTQK
p3267
I3266
sVQKT
p3268
I3267
sVKTF
p3269
I3268
sVNRG
p3270
I3269
sVKTL
p3271
I3270
sVFSA
p3272
I3271
sVTPA
p3273
I3272
sVPFN
p3274
I3273
sVFNL
p3275
I3274
sVNLI
p3276
I3275
sVLIR
p3277
I3276
sVIAI
p3278
I3277
sVAIK
p3279
I3278
sVIKI
p3280
I3279
sVIHS
p3281
I3280
sVHSV
p3282
I3281
sVSVF
p3283
I3282
sVVFS
p3284
I3283
sVSMI
p3285
I3284
sVMII
p3286
I3285
sVIIM
p3287
I3286
sVIMC
p3288
I3287
sVMCT
p3289
I3288
sVTNC
p3290
I3289
sVNCV
p3291
I3290
sVCVF
p3292
I3291
sVFMT
p3293
I3292
sVFSN
p3294
I3293
sVSNP
p3295
I3294
sVNPP
p3296
I3295
sVSKN
p3297
I3296
sVVEY
p3298
I3297
sVTGI
p3299
I3298
sVGIY
p3300
I3299
sVIYT
p3301
I3300
sVTFE
p3302
I3301
sVIAR
p3303
I3302
sVARG
p3304
I3303
sVRGF
p3305
I3304
sVGFC
p3306
I3305
sVFCI
p3307
I3306
sVIDG
p3308
I3307
sVGFT
p3309
I3308
sVFTF
p3310
I3309
sVFLR
p3311
I3310
sVLRD
p3312
I3311
sVRDP
p3313
I3312
sVDPW
p3314
I3313
sVPWN
p3315
I3314
sVWNW
p3316
I3315
sVLDF
p3317
I3316
sVDFS
p3318
I3317
sVSVI
p3319
I3318
sVIMM
p3320
I3319
sVMAY
p3321
I3320
sVTEF
p3322
I3321
sVNLG
p3323
I3322
sVGNV
p3324
I3323
sVRTF
p3325
I3324
sVTFR
p3326
I3325
sVFRV
p3327
I3326
sVLKT
p3328
I3327
sVKTI
p3329
I3328
sVVIP
p3330
I3329
sVIPG
p3331
I3330
sVTIV
p3332
I3331
sVALI
p3333
I3332
sVIQS
p3334
I3333
sVQSV
p3335
I3334
sVSVK
p3336
I3335
sVKLS
p3337
I3336
sVDVM
p3338
I3337
sVVMI
p3339
I3338
sVMIL
p3340
I3339
sVVFA
p3341
I3340
sVFAL
p3342
I3341
sVLFM
p3343
I3342
sVFMG
p3344
I3343
sVMGN
p3345
I3344
sVGNL
p3346
I3345
sVNLR
p3347
I3346
sVRNK
p3348
I3347
sVNKC
p3349
I3348
sVCVV
p3350
I3349
sVVVW
p3351
I3350
sVVWP
p3352
I3351
sVWPI
p3353
I3352
sVPIN
p3354
I3353
sVINF
p3355
I3354
sVNFN
p3356
I3355
sVFNE
p3357
I3356
sVNES
p3358
I3357
sVESY
p3359
I3358
sVNGT
p3360
I3359
sVGTK
p3361
I3360
sVTKG
p3362
I3361
sVKGF
p3363
I3362
sVGFD
p3364
I3363
sVFDW
p3365
I3364
sVDWE
p3366
I3365
sVWEE
p3367
I3366
sVEYI
p3368
I3367
sVNNK
p3369
I3368
sVKTN
p3370
I3369
sVFYT
p3371
I3370
sVGML
p3372
I3371
sVLLC
p3373
I3372
sVSSD
p3374
I3373
sVDAG
p3375
I3374
sVQCP
p3376
I3375
sVCPE
p3377
I3376
sVGYQ
p3378
I3377
sVYQC
p3379
I3378
sVQCM
p3380
I3379
sVCMK
p3381
I3380
sVMKA
p3382
I3381
sVGRN
p3383
I3382
sVNPN
p3384
I3383
sVPNY
p3385
I3384
sVNYG
p3386
I3385
sVTSF
p3387
I3386
sVSFD
p3388
I3387
sVFDT
p3389
I3388
sVFSW
p3390
I3389
sVFRL
p3391
I3390
sVRLM
p3392
I3391
sVLMT
p3393
I3392
sVMTQ
p3394
I3393
sVTQD
p3395
I3394
sVQDY
p3396
I3395
sVDYW
p3397
I3396
sVYWE
p3398
I3397
sVWEN
p3399
I3398
sVLYQ
p3400
I3399
sVYQL
p3401
I3400
sVTYM
p3402
I3401
sVYMI
p3403
I3402
sVIFF
p3404
I3403
sVVIF
p3405
I3404
sVIFV
p3406
I3405
sVSFY
p3407
I3406
sVFYL
p3408
I3407
sVVAM
p3409
I3408
sVAMA
p3410
I3409
sVYEE
p3411
I3410
sVEQN
p3412
I3411
sVQNQ
p3413
I3412
sVNQA
p3414
I3413
sVQAT
p3415
I3414
sVTLE
p3416
I3415
sVAEF
p3417
I3416
sVEFK
p3418
I3417
sVFKA
p3419
I3418
sVKAM
p3420
I3419
sVAML
p3421
I3420
sVLEQ
p3422
I3421
sVKKQ
p3423
I3422
sVKQQ
p3424
I3423
sVQQE
p3425
I3424
sVAAM
p3426
I3425
sVAGT
p3427
I3426
sVEDA
p3428
I3427
sVDAI
p3429
I3428
sVAIE
p3430
I3429
sVEGG
p3431
I3430
sVSPR
p3432
I3431
sVRSS
p3433
I3432
sVKSA
p3434
I3433
sVKER
p3435
I3434
sVRRN
p3436
I3435
sVRKK
p3437
I3436
sVKKR
p3438
I3437
sVKQK
p3439
I3438
sVLSE
p3440
I3439
sVSEG
p3441
I3440
sVKGD
p3442
I3441
sVFKS
p3443
I3442
sVESE
p3444
I3443
sVDGM
p3445
I3444
sVGMR
p3446
I3445
sVMRR
p3447
I3446
sVAFR
p3448
I3447
sVLPD
p3449
I3448
sVNRI
p3450
I3449
sVKFS
p3451
I3450
sVNQS
p3452
I3451
sVSRH
p3453
I3452
sVRHN
p3454
I3453
sVHNS
p3455
I3454
sVSSI
p3456
I3455
sVIFS
p3457
I3456
sVSFR
p3458
I3457
sVRGP
p3459
I3458
sVPGR
p3460
I3459
sVGRF
p3461
I3460
sVDPG
p3462
I3461
sVEFA
p3463
I3462
sVFAD
p3464
I3463
sVEHS
p3465
I3464
sVTVE
p3466
I3465
sVEES
p3467
I3466
sVRRD
p3468
I3467
sVRDS
p3469
I3468
sVDSL
p3470
I3469
sVSLF
p3471
I3470
sVLFI
p3472
I3471
sVPIR
p3473
I3472
sVIRA
p3474
I3473
sVSYS
p3475
I3474
sVYSG
p3476
I3475
sVGYS
p3477
I3476
sVYSQ
p3478
I3477
sVSQG
p3479
I3478
sVRIF
p3480
I3479
sVFPS
p3481
I3480
sVRSV
p3482
I3481
sVVDC
p3483
I3482
sVDCN
p3484
I3483
sVCNG
p3485
I3484
sVNGV
p3486
I3485
sVGGP
p3487
I3486
sVHIG
p3488
I3487
sVPEA
p3489
I3488
sVATT
p3490
I3489
sVTTE
p3491
I3490
sVEIK
p3492
I3491
sVKKG
p3493
I3492
sVLLV
p3494
I3493
sVSMD
p3495
I3494
sVMDQ
p3496
I3495
sVQLA
p3497
I3496
sVASY
p3498
I3497
sVSYG
p3499
I3498
sVYGR
p3500
I3499
sVINS
p3501
I3500
sVNSI
p3502
I3501
sVMSV
p3503
I3502
sVVVT
p3504
I3503
sVTNT
p3505
I3504
sVNTL
p3506
I3505
sVQRK
p3507
I3506
sVKCP
p3508
I3507
sVPPC
p3509
I3508
sVPCW
p3510
I3509
sVCWY
p3511
I3510
sVWYK
p3512
I3511
sVFAN
p3513
I3512
sVLIW
p3514
I3513
sVIWE
p3515
I3514
sVWEC
p3516
I3515
sVECH
p3517
I3516
sVCHP
p3518
I3517
sVHPY
p3519
I3518
sVPYW
p3520
I3519
sVYWI
p3521
I3520
sVWIK
p3522
I3521
sVIVN
p3523
I3522
sVIVM
p3524
I3523
sVVMD
p3525
I3524
sVMDP
p3526
I3525
sVDPF
p3527
I3526
sVPFV
p3528
I3527
sVAIT
p3529
I3528
sVTIC
p3530
I3529
sVICI
p3531
I3530
sVEHH
p3532
I3531
sVHHP
p3533
I3532
sVHPM
p3534
I3533
sVPMT
p3535
I3534
sVMTP
p3536
I3535
sVPQF
p3537
I3536
sVQFE
p3538
I3537
sVFEH
p3539
I3538
sVEHV
p3540
I3539
sVHVL
p3541
I3540
sVVGN
p3542
I3541
sVAEM
p3543
I3542
sVEMF
p3544
I3543
sVMFL
p3545
I3544
sVIAM
p3546
I3545
sVAMD
p3547
I3546
sVYYY
p3548
I3547
sVYYF
p3549
I3548
sVFQE
p3550
I3549
sVQEG
p3551
I3550
sVEGW
p3552
I3551
sVGWN
p3553
I3552
sVWNI
p3554
I3553
sVNIF
p3555
I3554
sVFIV
p3556
I3555
sVIVS
p3557
I3556
sVLME
p3558
I3557
sVMEL
p3559
I3558
sVDVE
p3560
I3559
sVRSF
p3561
I3560
sVRVF
p3562
I3561
sVFKL
p3563
I3562
sVAKS
p3564
I3563
sVSWP
p3565
I3564
sVWPT
p3566
I3565
sVPTL
p3567
I3566
sVNML
p3568
I3567
sVMLI
p3569
I3568
sVAII
p3570
I3569
sVIIV
p3571
I3570
sVVFI
p3572
I3571
sVFIF
p3573
I3572
sVIFA
p3574
I3573
sVFAV
p3575
I3574
sVGMQ
p3576
I3575
sVLFG
p3577
I3576
sVSYK
p3578
I3577
sVKEC
p3579
I3578
sVECV
p3580
I3579
sVCVC
p3581
I3580
sVVCK
p3582
I3581
sVCKI
p3583
I3582
sVKIN
p3584
I3583
sVINQ
p3585
I3584
sVNQD
p3586
I3585
sVQDC
p3587
I3586
sVDCE
p3588
I3587
sVELP
p3589
I3588
sVLPR
p3590
I3589
sVPRW
p3591
I3590
sVRWH
p3592
I3591
sVWHM
p3593
I3592
sVHMH
p3594
I3593
sVMHD
p3595
I3594
sVHDF
p3596
I3595
sVFFH
p3597
I3596
sVFHS
p3598
I3597
sVHSF
p3599
I3598
sVGEW
p3600
I3599
sVWIE
p3601
I3600
sVIET
p3602
I3601
sVETM
p3603
I3602
sVTMW
p3604
I3603
sVMWD
p3605
I3604
sVWDC
p3606
I3605
sVDCM
p3607
I3606
sVCME
p3608
I3607
sVMEV
p3609
I3608
sVQAM
p3610
I3609
sVAMC
p3611
I3610
sVMCL
p3612
I3611
sVCLI
p3613
I3612
sVFMM
p3614
I3613
sVMMV
p3615
I3614
sVMVM
p3616
I3615
sVVMV
p3617
I3616
sVLVV
p3618
I3617
sVNLF
p3619
I3618
sVSAD
p3620
I3619
sVDNL
p3621
I3620
sVATD
p3622
I3621
sVDDD
p3623
I3622
sVGEM
p3624
I3623
sVEMN
p3625
I3624
sVMNN
p3626
I3625
sVQIS
p3627
I3626
sVIRI
p3628
I3627
sVAWT
p3629
I3628
sVWTK
p3630
I3629
sVTKL
p3631
I3630
sVKVH
p3632
I3631
sVHAF
p3633
I3632
sVAFM
p3634
I3633
sVMQA
p3635
I3634
sVQAH
p3636
I3635
sVHFK
p3637
I3636
sVFKQ
p3638
I3637
sVKQR
p3639
I3638
sVQRE
p3640
I3639
sVVKP
p3641
I3640
sVKAN
p3642
I3641
sVANC
p3643
I3642
sVCIA
p3644
I3643
sVNHT
p3645
I3644
sVHTG
p3646
I3645
sVGAD
p3647
I3646
sVADI
p3648
I3647
sVDIH
p3649
I3648
sVHRN
p3650
I3649
sVRNG
p3651
I3650
sVGDF
p3652
I3651
sVDFQ
p3653
I3652
sVFQK
p3654
I3653
sVQKN
p3655
I3654
sVNGN
p3656
I3655
sVGNG
p3657
I3656
sVKYI
p3658
I3657
sVYII
p3659
I3658
sVIDE
p3660
I3659
sVDHM
p3661
I3660
sVMSF
p3662
I3661
sVSFI
p3663
I3662
sVFIN
p3664
I3663
sVNNP
p3665
I3664
sVVPI
p3666
I3665
sVPIA
p3667
I3666
sVVGE
p3668
I3667
sVFEN
p3669
I3668
sVNLN
p3670
I3669
sVNTE
p3671
I3670
sVVSS
p3672
I3671
sVSDP
p3673
I3672
sVGSK
p3674
I3673
sVDKL
p3675
I3674
sVDTS
p3676
I3675
sVSTI
p3677
I3676
sVIDI
p3678
I3677
sVPVE
p3679
I3678
sVVEQ
p3680
I3679
sVEYL
p3681
I3680
sVPDA
p3682
I3681
sVDAC
p3683
I3682
sVACF
p3684
I3683
sVCFT
p3685
I3684
sVGCV
p3686
I3685
sVCVQ
p3687
I3686
sVVQR
p3688
I3687
sVQRF
p3689
I3688
sVRFK
p3690
I3689
sVFKC
p3691
I3690
sVKCC
p3692
I3691
sVCCQ
p3693
I3692
sVQVN
p3694
I3693
sVVNI
p3695
I3694
sVWWI
p3696
I3695
sVWIL
p3697
I3696
sVRKT
p3698
I3697
sVKTC
p3699
I3698
sVTCF
p3700
I3699
sVCFL
p3701
I3700
sVIVE
p3702
I3701
sVVEH
p3703
I3702
sVEHN
p3704
I3703
sVHNW
p3705
I3704
sVNWF
p3706
I3705
sVWFE
p3707
I3706
sVFET
p3708
I3707
sVETF
p3709
I3708
sVFII
p3710
I3709
sVFMI
p3711
I3710
sVSSG
p3712
I3711
sVLAF
p3713
I3712
sVAFE
p3714
I3713
sVDIY
p3715
I3714
sVIYI
p3716
I3715
sVYIE
p3717
I3716
sVIEQ
p3718
I3717
sVEQR
p3719
I3718
sVLEY
p3720
I3719
sVEYA
p3721
I3720
sVYAD
p3722
I3721
sVDKV
p3723
I3722
sVTYI
p3724
I3723
sVYIF
p3725
I3724
sVIFI
p3726
I3725
sVKWT
p3727
I3726
sVWTA
p3728
I3727
sVAYG
p3729
I3728
sVYGF
p3730
I3729
sVFVK
p3731
I3730
sVVKF
p3732
I3731
sVFFT
p3733
I3732
sVFTN
p3734
I3733
sVTNA
p3735
I3734
sVNAW
p3736
I3735
sVAWC
p3737
I3736
sVWCW
p3738
I3737
sVCWL
p3739
I3738
sVDFL
p3740
I3739
sVNAL
p3741
I3740
sVRFE
p3742
I3741
sVFEG
p3743
I3742
sVVVN
p3744
I3743
sVIPS
p3745
I3744
sVPSI
p3746
I3745
sVMNV
p3747
I3746
sVNVL
p3748
I3747
sVLIF
p3749
I3748
sVIFW
p3750
I3749
sVFWL
p3751
I3750
sVWLI
p3752
I3751
sVKYH
p3753
I3752
sVHYC
p3754
I3753
sVYCF
p3755
I3754
sVCFN
p3756
I3755
sVNET
p3757
I3756
sVETS
p3758
I3757
sVEIR
p3759
I3758
sVIRF
p3760
I3759
sVEIE
p3761
I3760
sVDVN
p3762
I3761
sVVNN
p3763
I3762
sVKTE
p3764
I3763
sVTEC
p3765
I3764
sVECE
p3766
I3765
sVKLM
p3767
I3766
sVMEG
p3768
I3767
sVEGN
p3769
I3768
sVNNT
p3770
I3769
sVRWK
p3771
I3770
sVWKN
p3772
I3771
sVNFD
p3773
I3772
sVFDN
p3774
I3773
sVNVG
p3775
I3774
sVAGY
p3776
I3775
sVATF
p3777
I3776
sVTFK
p3778
I3777
sVFKG
p3779
I3778
sVKGW
p3780
I3779
sVGWM
p3781
I3780
sVWMD
p3782
I3781
sVIMY
p3783
I3782
sVMYA
p3784
I3783
sVDSR
p3785
I3784
sVRKP
p3786
I3785
sVKPD
p3787
I3786
sVQPK
p3788
I3787
sVKYE
p3789
I3788
sVYED
p3790
I3789
sVDNI
p3791
I3790
sVNIY
p3792
I3791
sVMYI
p3793
I3792
sVYIY
p3794
I3793
sVIYF
p3795
I3794
sVFVI
p3796
I3795
sVFTL
p3797
I3796
sVIGV
p3798
I3797
sVFNQ
p3799
I3798
sVNQQ
p3800
I3799
sVKKF
p3801
I3800
sVKFG
p3802
I3801
sVDIF
p3803
I3802
sVMTE
p3804
I3803
sVTEE
p3805
I3804
sVKKY
p3806
I3805
sVNAM
p3807
I3806
sVAMK
p3808
I3807
sVMKK
p3809
I3808
sVKLG
p3810
I3809
sVKPQ
p3811
I3810
sVQKP
p3812
I3811
sVIPR
p3813
I3812
sVLNK
p3814
I3813
sVKIQ
p3815
I3814
sVQGI
p3816
I3815
sVFDF
p3817
I3816
sVDFV
p3818
I3817
sVVTQ
p3819
I3818
sVQAF
p3820
I3819
sVAFD
p3821
I3820
sVFDI
p3822
I3821
sVDIV
p3823
I3822
sVIVI
p3824
I3823
sVMML
p3825
I3824
sVLIC
p3826
I3825
sVICL
p3827
I3826
sVCLN
p3828
I3827
sVMVT
p3829
I3828
sVVTM
p3830
I3829
sVTMM
p3831
I3830
sVTQS
p3832
I3831
sVKQM
p3833
I3832
sVQME
p3834
I3833
sVENI
p3835
I3834
sVLYW
p3836
I3835
sVWIN
p3837
I3836
sVFTC
p3838
I3837
sVCEC
p3839
I3838
sVCVL
p3840
I3839
sVVLK
p3841
I3840
sVKMF
p3842
I3841
sVMFA
p3843
I3842
sVLRH
p3844
I3843
sVRHY
p3845
I3844
sVHYY
p3846
I3845
sVYFT
p3847
I3846
sVFTI
p3848
I3847
sVTIG
p3849
I3848
sVIGW
p3850
I3849
sVIIE
p3851
I3850
sVIEK
p3852
I3851
sVKYF
p3853
I3852
sVRVI
p3854
I3853
sVIRL
p3855
I3854
sVLAR
p3856
I3855
sVARI
p3857
I3856
sVIKG
p3858
I3857
sVKGA
p3859
I3858
sVALM
p3860
I3859
sVLMM
p3861
I3860
sVMMS
p3862
I3861
sVFNI
p3863
I3862
sVVMF
p3864
I3863
sVMFI
p3865
I3864
sVFGM
p3866
I3865
sVSNF
p3867
I3866
sVNFA
p3868
I3867
sVAYV
p3869
I3868
sVYVK
p3870
I3869
sVVKH
p3871
I3870
sVKHE
p3872
I3871
sVDDM
p3873
I3872
sVMFN
p3874
I3873
sVFNF
p3875
I3874
sVFGN
p3876
I3875
sVNSM
p3877
I3876
sVMIC
p3878
I3877
sVFQI
p3879
I3878
sVITT
p3880
I3879
sVAGW
p3881
I3880
sVGWD
p3882
I3881
sVWDG
p3883
I3882
sVDGL
p3884
I3883
sVPDC
p3885
I3884
sVCSL
p3886
I3885
sVDKE
p3887
I3886
sVKEH
p3888
I3887
sVSGF
p3889
I3888
sVGFK
p3890
I3889
sVGDC
p3891
I3890
sVGNP
p3892
I3891
sVNPS
p3893
I3892
sVPSV
p3894
I3893
sVFFF
p3895
I3894
sVVSY
p3896
I3895
sVIII
p3897
I3896
sVIIS
p3898
I3897
sVISF
p3899
I3898
sVIVV
p3900
I3899
sVNMY
p3901
I3900
sVYIA
p3902
I3901
sVNFS
p3903
I3902
sVADP
p3904
I3903
sVDPL
p3905
I3904
sVTFY
p3906
I3905
sVYEI
p3907
I3906
sVEIW
p3908
I3907
sVWEK
p3909
I3908
sVKFD
p3910
I3909
sVTQF
p3911
I3910
sVFIE
p3912
I3911
sVIEY
p3913
I3912
sVEYC
p3914
I3913
sVYCK
p3915
I3914
sVCKL
p3916
I3915
sVADF
p3917
I3916
sVADA
p3918
I3917
sVALE
p3919
I3918
sVLEH
p3920
I3919
sVHPL
p3921
I3920
sVVPK
p3922
I3921
sVIEL
p3923
I3922
sVMDL
p3924
I3923
sVPMV
p3925
I3924
sVVSG
p3926
I3925
sVRIH
p3927
I3926
sVIHC
p3928
I3927
sVHCL
p3929
I3928
sVLDI
p3930
I3929
sVILF
p3931
I3930
sVFAF
p3932
I3931
sVDSG
p3933
I3932
sVELD
p3934
I3933
sVRQQ
p3935
I3934
sVQQM
p3936
I3935
sVERF
p3937
I3936
sVASN
p3938
I3937
sVEPI
p3939
I3938
sVPIT
p3940
I3939
sVTTL
p3941
I3940
sVEVS
p3942
I3941
sVRAY
p3943
I3942
sVYRG
p3944
I3943
sVRGH
p3945
I3944
sVFIC
p3946
I3945
sVCKK
p3947
I3946
sVTSN
p3948
I3947
sVNGG
p3949
I3948
sVTHR
p3950
I3949
sVEST
p3951
I3950
sVSTP
p3952
I3951
sVTPS
p3953
I3952
sVPSY
p3954
I3953
sVSYD
p3955
I3954
sVYDS
p3956
I3955
sVTKP
p3957
I3956
sVQQR
p3958
I3957
sVERA
p3959
I3958
sVSKC
p3960
I3959
sVKC=
p3961
I3960
sVTGQ
p3962
I3961
sVQRP
p3963
I3962
sVRPE
p3964
I3963
sVAAE
p3965
I3964
sVSRP
p3966
I3965
sVQWA
p3967
I3966
sVWAP
p3968
I3967
sVPDH
p3969
I3968
sVDHC
p3970
I3969
sVHCQ
p3971
I3970
sVGED
p3972
I3971
sVAPV
p3973
I3972
sVPLC
p3974
I3973
sVLCK
p3975
I3974
sVCKP
p3976
I3975
sVKPR
p3977
I3976
sVGIC
p3978
I3977
sVICS
p3979
I3978
sVCSR
p3980
I3979
sVSRA
p3981
I3980
sVAYF
p3982
I3981
sVLMV
p3983
I3982
sVLYL
p3984
I3983
sVVHY
p3985
I3984
sVHYS
p3986
I3985
sVGDE
p3987
I3986
sVDES
p3988
I3987
sVESS
p3989
I3988
sVPQH
p3990
I3989
sVGPE
p3991
I3990
sVLTR
p3992
I3991
sVRLE
p3993
I3992
sVEGI
p3994
I3993
sVIKV
p3995
I3994
sVKVG
p3996
I3995
sVVGH
p3997
I3996
sVHER
p3998
I3997
sVERK
p3999
I3998
sVKVQ
p4000
I3999
sVLVT
p4001
I4000
sVVTD
p4002
I4001
sVTDR
p4003
I4002
sVDRD
p4004
I4003
sVRDH
p4005
I4004
sVDHF
p4006
I4005
sVHFI
p4007
I4006
sVFIR
p4008
I4007
sVLFE
p4009
I4008
sVEIP
p4010
I4009
sVDEE
p4011
I4010
sVEEC
p4012
I4011
sVECR
p4013
I4012
sVLII
p4014
I4013
sVIIH
p4015
I4014
sVAQM
p4016
I4015
sVQMK
p4017
I4016
sVKGL
p4018
I4017
sVSQI
p4019
I4018
sVQIL
p4020
I4019
sVLPT
p4021
I4020
sVPTE
p4022
I4021
sVAMS
p4023
I4022
sVSTM
p4024
I4023
sVMQV
p4025
I4024
sVQVS
p4026
I4025
sVLDQ
p4027
I4026
sVDQN
p4028
I4027
sVQNR
p4029
I4028
sVNRD
p4030
I4029
sVRDG
p4031
I4030
sVDGH
p4032
I4031
sVLRE
p4033
I4032
sVREV
p4034
I4033
sVQTR
p4035
I4034
sVNGW
p4036
I4035
sVGWW
p4037
I4036
sVWWM
p4038
I4037
sVWMT
p4039
I4038
sVQEM
p4040
I4039
sVEMY
p4041
I4040
sVPDG
p4042
I4041
sVEFS
p4043
I4042
sVNMD
p4044
I4043
sVRDF
p4045
I4044
sVDFH
p4046
I4045
sVFHK
p4047
I4046
sVHKY
p4048
I4047
sVKYM
p4049
I4048
sVYMR
p4050
I4049
sVMRS
p4051
I4050
sVRSH
p4052
I4051
sVSHK
p4053
I4052
sVHKA
p4054
I4053
sVVRN
p4055
I4054
sVNSH
p4056
I4055
sVHTW
p4057
I4056
sVTWL
p4058
I4057
sVWLY
p4059
I4058
sVYQG
p4060
I4059
sVAHH
p4061
I4060
sVHHI
p4062
I4061
sVHIM
p4063
I4062
sVIMR
p4064
I4063
sVQRV
p4065
I4064
sVRLT
p4066
I4065
sVQVV
p4067
I4066
sVVRY
p4068
I4067
sVRYG
p4069
I4068
sVYGE
p4070
I4069
sVHYH
p4071
I4070
sVYHA
p4072
I4071
sVHAH
p4073
I4072
sVAHV
p4074
I4073
sVSHT
p4075
I4074
sVANE
p4076
I4075
sVSVP
p4077
I4076
sVPFE
p4078
I4077
sVSCR
p4079
I4078
sVCRY
p4080
I4079
sVRYM
p4081
I4080
sVYMT
p4082
I4081
sVMTV
p4083
I4082
sVLFY
p4084
I4083
sVYLN
p4085
I4084
sVLNN
p4086
I4085
sVNVT
p4087
I4086
sVETV
p4088
I4087
sVVFP
p4089
I4088
sVRTY
p4090
I4089
sVYDE
p4091
I4090
sVEMS
p4092
I4091
sVIQD
p4093
I4092
sVDDV
p4094
I4093
sVRDT
p4095
I4094
sVTRR
p4096
I4095
sVRHC
p4097
I4096
sVHCD
p4098
I4097
sVCDK
p4099
I4098
sVKGN
p4100
I4099
sVRVK
p4101
I4100
sVVFW
p4102
I4101
sVFWY
p4103
I4102
sVWYN
p4104
I4103
sVNYL
p4105
I4104
sVYLP
p4106
I4105
sVDGQ
p4107
I4106
sVGQG
p4108
I4107
sVQGW
p4109
I4108
sVWVG
p4110
I4109
sVVDD
p4111
I4110
sVDDY
p4112
I4111
sVDYS
p4113
I4112
sVSLH
p4114
I4113
sVLHG
p4115
I4114
sVHGG
p4116
I4115
sVGGC
p4117
I4116
sVCLV
p4118
I4117
sVTRG
p4119
I4118
sVRGT
p4120
I4119
sVTKW
p4121
I4120
sVKWI
p4122
I4121
sVWIA
p4123
I4122
sVNWI
p4124
I4123
sVINV
p4125
I4124
sVNVD
p4126
I4125
sVQAL
p4127
I4126
sVFQQ
p4128
I4127
sVMAR
p4129
I4128
sVREG
p4130
I4129
sVGTD
p4131
I4130
sVTDS
p4132
I4131
sVDSQ
p4133
I4132
sVPEW
p4134
I4133
sVEWA
p4135
I4134
sVDRA
p4136
I4135
sVRDA
p4137
I4136
sVDAR
p4138
I4137
sVARV
p4139
I4138
sVEL=
p4140
I4139
sV-MS
p4141
I4140
sVMSR
p4142
I4141
sVVEA
p4143
I4142
sVQQS
p4144
I4143
sVSHG
p4145
I4144
sVHGS
p4146
I4145
sVSAC
p4147
I4146
sVACS
p4148
I4147
sVCSQ
p4149
I4148
sVQSQ
p4150
I4149
sVSQS
p4151
I4150
sVISS
p4152
I4151
sVTST
p4153
I4152
sVTMP
p4154
I4153
sVMPN
p4155
I4154
sVHSS
p4156
I4155
sVVST
p4157
I4156
sVPED
p4158
I4157
sVEDQ
p4159
I4158
sVDQE
p4160
I4159
sVEEP
p4161
I4160
sVPTP
p4162
I4161
sVPAP
p4163
I4162
sVAPW
p4164
I4163
sVPWA
p4165
I4164
sVWAR
p4166
I4165
sVLWA
p4167
I4166
sVQDG
p4168
I4167
sVNLE
p4169
I4168
sVCVN
p4170
I4169
sVVND
p4171
I4170
sVNDN
p4172
I4171
sVNYW
p4173
I4172
sVYWF
p4174
I4173
sVWFG
p4175
I4174
sVRDK
p4176
I4175
sVCEY
p4177
I4176
sVCFD
p4178
I4177
sVFDE
p4179
I4178
sVDEP
p4180
I4179
sVKRT
p4181
I4180
sVTDK
p4182
I4181
sVDKY
p4183
I4182
sVKYR
p4184
I4183
sVTYS
p4185
I4184
sVYSK
p4186
I4185
sVKKH
p4187
I4186
sVKHF
p4188
I4187
sVHFR
p4189
I4188
sVFRE
p4190
I4189
sVVGP
p4191
I4190
sVNSY
p4192
I4191
sVIAY
p4193
I4192
sVHSG
p4194
I4193
sVTEL
p4195
I4194
sVKGK
p4196
I4195
sVGKR
p4197
I4196
sVKRR
p4198
I4197
sVNNN
p4199
I4198
sVNNS
p4200
I4199
sVNSE
p4201
I4200
sVEIA
p4202
I4201
sVIAL
p4203
I4202
sVSRN
p4204
I4203
sVFFD
p4205
I4204
sVFDL
p4206
I4205
sVDDQ
p4207
I4206
sVYPK
p4208
I4207
sVRDE
p4209
I4208
sVDEY
p4210
I4209
sVYIM
p4211
I4210
sVMSK
p4212
I4211
sVSKT
p4213
I4212
sVGAC
p4214
I4213
sVFER
p4215
I4214
sVSKR
p4216
I4215
sVFAI
p4217
I4216
sVSAR
p4218
I4217
sVALN
p4219
I4218
sVETE
p4220
I4219
sVIEI
p4221
I4220
sVHPC
p4222
I4221
sVPCI
p4223
I4222
sVCII
p4224
I4223
sVIIK
p4225
I4224
sVIKN
p4226
I4225
sVAED
p4227
I4226
sVEDY
p4228
I4227
sVDYY
p4229
I4228
sVYIV
p4230
I4229
sVVLE
p4231
I4230
sVLFD
p4232
I4231
sVFDK
p4233
I4232
sVGNK
p4234
I4233
sVNKR
p4235
I4234
sVRLK
p4236
I4235
sVLYF
p4237
I4236
sVYFY
p4238
I4237
sVFYQ
p4239
I4238
sVYQM
p4240
I4239
sVAVQ
p4241
I4240
sVVQY
p4242
I4241
sVQYL
p4243
I4242
sVYLH
p4244
I4243
sVHEN
p4245
I4244
sVGII
p4246
I4245
sVHRD
p4247
I4246
sVENV
p4248
I4247
sVSQE
p4249
I4248
sVEDC
p4250
I4249
sVTDF
p4251
I4250
sVFGH
p4252
I4251
sVMRT
p4253
I4252
sVGTP
p4254
I4253
sVTYL
p4255
I4254
sVVGT
p4256
I4255
sVGYN
p4257
I4256
sVYNR
p4258
I4257
sVNRA
p4259
I4258
sVDCW
p4260
I4259
sVCWS
p4261
I4260
sVGYP
p4262
I4261
sVPPF
p4263
I4262
sVSEH
p4264
I4263
sVEHR
p4265
I4264
sVHRT
p4266
I4265
sVRTQ
p4267
I4266
sVLKD
p4268
I4267
sVYNF
p4269
I4268
sVNFI
p4270
I4269
sVEVW
p4271
I4270
sVWAE
p4272
I4271
sVKAR
p4273
I4272
sVARF
p4274
I4273
sVRFT
p4275
I4274
sVFTT
p4276
I4275
sVRHP
p4277
I4276
sVHPW
p4278
I4277
sVPWL
p4279
I4278
sVMKR
p4280
I4279
sVKFQ
p4281
I4280
sVFQD
p4282
I4281
sVQDL
p4283
I4282
sVALP
p4284
I4283
sVPQV
p4285
I4284
sVAQP
p4286
I4285
sVQPS
p4287
I4286
sVRKR
p4288
I4287
sVKRP
p4289
I4288
sVPRE
p4290
I4289
sVAET
p4291
I4290
sVRPA
p4292
I4291
sVVL=
p4293
I4292
sVPTN
p4294
I4293
sVSNC
p4295
I4294
sVCTD
p4296
I4295
sVTDA
p4297
I4296
sVAYS
p4298
I4297
sVYSS
p4299
I4298
sVSSC
p4300
I4299
sVSCS
p4301
I4300
sVCSP
p4302
I4301
sVSWV
p4303
I4302
sVWVN
p4304
I4303
sVHLD
p4305
I4304
sVDGN
p4306
I4305
sVDPC
p4307
I4306
sVPNR
p4308
I4307
sVLCP
p4309
I4308
sVPSM
p4310
I4309
sVMIT
p4311
I4310
sVIVC
p4312
I4311
sVVCV
p4313
I4312
sVVGL
p4314
I4313
sVGLF
p4315
I4314
sVVMY
p4316
I4315
sVMYV
p4317
I4316
sVYVI
p4318
I4317
sVVIV
p4319
I4318
sVRYT
p4320
I4319
sVYTK
p4321
I4320
sVTKM
p4322
I4321
sVKMK
p4323
I4322
sVMKT
p4324
I4323
sVIFN
p4325
I4324
sVTLP
p4326
I4325
sVPFQ
p4327
I4326
sVFQS
p4328
I4327
sVSVN
p4329
I4328
sVVNY
p4330
I4329
sVYLM
p4331
I4330
sVGTW
p4332
I4331
sVWPF
p4333
I4332
sVGTI
p4334
I4333
sVKIV
p4335
I4334
sVISI
p4336
I4335
sVSID
p4337
I4336
sVIDY
p4338
I4337
sVYNM
p4339
I4338
sVNMF
p4340
I4339
sVMFT
p4341
I4340
sVFTS
p4342
I4341
sVTSI
p4343
I4342
sVLCT
p4344
I4343
sVCTM
p4345
I4344
sVVDR
p4346
I4345
sVVCH
p4347
I4346
sVHPV
p4348
I4347
sVPVK
p4349
I4348
sVDFR
p4350
I4349
sVRTP
p4351
I4350
sVTPR
p4352
I4351
sVPRN
p4353
I4352
sVRNA
p4354
I4353
sVAKI
p4355
I4354
sVNVC
p4356
I4355
sVCNW
p4357
I4356
sVLPV
p4358
I4357
sVMFM
p4359
I4358
sVTKY
p4360
I4359
sVYRQ
p4361
I4360
sVGSI
p4362
I4361
sVIDC
p4363
I4362
sVDCT
p4364
I4363
sVTLT
p4365
I4364
sVFSH
p4366
I4365
sVSHP
p4367
I4366
sVHPT
p4368
I4367
sVPTW
p4369
I4368
sVTWY
p4370
I4369
sVWYW
p4371
I4370
sVKIC
p4372
I4371
sVICV
p4373
I4372
sVIMP
p4374
I4373
sVIIT
p4375
I4374
sVITV
p4376
I4375
sVTVC
p4377
I4376
sVVCY
p4378
I4377
sVCYG
p4379
I4378
sVYGL
p4380
I4379
sVGLM
p4381
I4380
sVKSV
p4382
I4381
sVVRM
p4383
I4382
sVMLS
p4384
I4383
sVSKE
p4385
I4384
sVRNL
p4386
I4385
sVRIT
p4387
I4386
sVITR
p4388
I4387
sVRMV
p4389
I4388
sVMVL
p4390
I4389
sVVCW
p4391
I4390
sVCWT
p4392
I4391
sVTPI
p4393
I4392
sVIHI
p4394
I4393
sVHIY
p4395
I4394
sVIYV
p4396
I4395
sVVTI
p4397
I4396
sVTTF
p4398
I4397
sVTFQ
p4399
I4398
sVFQT
p4400
I4399
sVVSW
p4401
I4400
sVSWH
p4402
I4401
sVWHF
p4403
I4402
sVHFC
p4404
I4403
sVYTN
p4405
I4404
sVNSC
p4406
I4405
sVNPV
p4407
I4406
sVVLY
p4408
I4407
sVLYA
p4409
I4408
sVYAF
p4410
I4409
sVFLD
p4411
I4410
sVDEN
p4412
I4411
sVNFK
p4413
I4412
sVKRC
p4414
I4413
sVRCF
p4415
I4414
sVEFC
p4416
I4415
sVCIP
p4417
I4416
sVSSN
p4418
I4417
sVSNI
p4419
I4418
sVQQN
p4420
I4419
sVQNS
p4421
I4420
sVRQN
p4422
I4421
sVQNT
p4423
I4422
sVNTR
p4424
I4423
sVDHP
p4425
I4424
sVHPS
p4426
I4425
sVTAN
p4427
I4426
sVTNH
p4428
I4427
sVTAP
p4429
I4428
sVLP=
p4430
I4429
sVMAH
p4431
I4430
sVHAA
p4432
I4431
sVTSP
p4433
I4432
sVSPI
p4434
I4433
sVPIM
p4435
I4434
sVIME
p4436
I4435
sVLIT
p4437
I4436
sVITF
p4438
I4437
sVTFH
p4439
I4438
sVFHD
p4440
I4439
sVHDH
p4441
I4440
sVNTN
p4442
I4441
sVNIS
p4443
I4442
sVDAQ
p4444
I4443
sVMET
p4445
I4444
sVTVW
p4446
I4445
sVPAI
p4447
I4446
sVLYM
p4448
I4447
sVMTD
p4449
I4448
sVEVN
p4450
I4449
sVIGH
p4451
I4450
sVGHQ
p4452
I4451
sVQWY
p4453
I4452
sVYWT
p4454
I4453
sVWTY
p4455
I4454
sVTYE
p4456
I4455
sVYEY
p4457
I4456
sVYTD
p4458
I4457
sVTDY
p4459
I4458
sVDYG
p4460
I4459
sVSYM
p4461
I4460
sVYML
p4462
I4461
sVMLP
p4463
I4462
sVPLF
p4464
I4463
sVPGD
p4465
I4464
sVVDN
p4466
I4465
sVEAP
p4467
I4466
sVAPI
p4468
I4467
sVMMI
p4469
I4468
sVTSQ
p4470
I4469
sVVLH
p4471
I4470
sVLHS
p4472
I4471
sVHSW
p4473
I4472
sVWAV
p4474
I4473
sVKTD
p4475
I4474
sVRLN
p4476
I4475
sVNQT
p4477
I4476
sVQTT
p4478
I4477
sVATR
p4479
I4478
sVRPG
p4480
I4479
sVYYG
p4481
I4480
sVQCS
p4482
I4481
sVCSE
p4483
I4482
sVEIC
p4484
I4483
sVICG
p4485
I4484
sVGAN
p4486
I4485
sVNHS
p4487
I4486
sVSFM
p4488
I4487
sVPIV
p4489
I4488
sVLIP
p4490
I4489
sVKIF
p4491
I4490
sVTL=
p4492
I4491
sVMGF
p4493
I4492
sVGFN
p4494
I4493
sVLCL
p4495
I4494
sVVGW
p4496
I4495
sVGWA
p4497
I4496
sVWAT
p4498
I4497
sVSNY
p4499
I4498
sVQEI
p4500
I4499
sVIPK
p4501
I4500
sVEFM
p4502
I4501
sVANF
p4503
I4502
sVNFH
p4504
I4503
sVHKT
p4505
I4504
sVTNE
p4506
I4505
sVLDN
p4507
I4506
sVDNC
p4508
I4507
sVNCP
p4509
I4508
sVCPS
p4510
I4509
sVSPY
p4511
I4510
sVYLR
p4512
I4511
sVRGQ
p4513
I4512
sVIFK
p4514
I4513
sVVQA
p4515
I4514
sVAEN
p4516
I4515
sVENP
p4517
I4516
sVNPK
p4518
I4517
sVVSR
p4519
I4518
sVQEC
p4520
I4519
sVVPH
p4521
I4520
sVPHR
p4522
I4521
sVEKH
p4523
I4522
sVLMY
p4524
I4523
sVHLH
p4525
I4524
sVHPF
p4526
I4525
sVQQL
p4527
I4526
sVLDY
p4528
I4527
sVVIH
p4529
I4528
sVIHQ
p4530
I4529
sVHQA
p4531
I4530
sVKFN
p4532
I4531
sVFNR
p4533
I4532
sVVGY
p4534
I4533
sVNWD
p4535
I4534
sVDCF
p4536
I4535
sVCFI
p4537
I4536
sVIFH
p4538
I4537
sVHDV
p4539
I4538
sVLYK
p4540
I4539
sVYKC
p4541
I4540
sVKCE
p4542
I4541
sVEEH
p4543
I4542
sVHPK
p4544
I4543
sVPKH
p4545
I4544
sVTGY
p4546
I4545
sVYRL
p4547
I4546
sVLRY
p4548
I4547
sVRYS
p4549
I4548
sVGYF
p4550
I4549
sVVTA
p4551
I4550
sVREQ
p4552
I4551
sVQFF
p4553
I4552
sVKVN
p4554
I4553
sVVNG
p4555
I4554
sVNGF
p4556
I4555
sVGFS
p4557
I4556
sVSNN
p4558
I4557
sVNNY
p4559
I4558
sVYWG
p4560
I4559
sVWGW
p4561
I4560
sVGWG
p4562
I4561
sVWGG
p4563
I4562
sVDDL
p4564
I4563
sVRMK
p4565
I4564
sVKIS
p4566
I4565
sVISR
p4567
I4566
sVYTM
p4568
I4567
sVTMV
p4569
I4568
sVVFH
p4570
I4569
sVFHT
p4571
I4570
sVHTR
p4572
I4571
sVNEV
p4573
I4572
sVNAE
p4574
I4573
sVERM
p4575
I4574
sVMKL
p4576
I4575
sVHQV
p4577
I4576
sVRVW
p4578
I4577
sVWRT
p4579
I4578
sVTDG
p4580
I4579
sVHNP
p4581
I4580
sVINI
p4582
I4581
sVNIT
p4583
I4582
sVVDF
p4584
I4583
sVDFW
p4585
I4584
sVFWF
p4586
I4585
sVFGA
p4587
I4586
sVGA=
p4588
I4587
sVDLD
p4589
I4588
sVRVD
p4590
I4589
sVVDK
p4591
I4590
sVRET
p4592
I4591
sVEKR
p4593
I4592
sVKRF
p4594
I4593
sVVDQ
p4595
I4594
sVADS
p4596
I4595
sVSEW
p4597
I4596
sVEWR
p4598
I4597
sVWRR
p4599
I4598
sVRRC
p4600
I4599
sVRCR
p4601
I4600
sVCRF
p4602
I4601
sVFRA
p4603
I4602
sVRAD
p4604
I4603
sVLKN
p4605
I4604
sVNLC
p4606
I4605
sVLCS
p4607
I4606
sVCSK
p4608
I4607
sVEKM
p4609
I4608
sVPVG
p4610
I4609
sVFDD
p4611
I4610
sVQIK
p4612
I4611
sVVRL
p4613
I4612
sVLID
p4614
I4613
sVEAI
p4615
I4614
sVKCD
p4616
I4615
sVCDA
p4617
I4616
sVEIG
p4618
I4617
sVPIS
p4619
I4618
sVDNK
p4620
I4619
sVVER
p4621
I4620
sVRIW
p4622
I4621
sVIWG
p4623
I4622
sVWGD
p4624
I4623
sVCTV
p4625
I4624
sVYSH
p4626
I4625
sVSHV
p4627
I4626
sVMVD
p4628
I4627
sVGFE
p4629
I4628
sVVFL
p4630
I4629
sVIQY
p4631
I4630
sVQYA
p4632
I4631
sVGYI
p4633
I4632
sVYIP
p4634
I4633
sVYTP
p4635
I4634
sVTPF
p4636
I4635
sVEVM
p4637
I4636
sVVMQ
p4638
I4637
sVMQE
p4639
I4638
sVSQF
p4640
I4639
sVQFD
p4641
I4640
sVKSD
p4642
I4641
sVSDD
p4643
I4642
sVDEK
p4644
I4643
sVKYL
p4645
I4644
sVYLI
p4646
I4645
sVQPI
p4647
I4646
sVALH
p4648
I4647
sVLHR
p4649
I4648
sVDEW
p4650
I4649
sVEWL
p4651
I4650
sVWLR
p4652
I4651
sVKYA
p4653
I4652
sVYAG
p4654
I4653
sVSTC
p4655
I4654
sVFRQ
p4656
I4655
sVRQE
p4657
I4656
sVRVH
p4658
I4657
sVHQF
p4659
I4658
sVFEK
p4660
I4659
sVFVY
p4661
I4660
sVVYS
p4662
I4661
sVSSP
p4663
I4662
sVSPH
p4664
I4663
sVPHD
p4665
I4664
sVHDN
p4666
I4665
sVNKS
p4667
I4666
sVSWE
p4668
I4667
sVMFE
p4669
I4668
sVFEE
p4670
I4669
sVEEM
p4671
I4670
sVTTA
p4672
I4671
sVEFY
p4673
I4672
sVYQS
p4674
I4673
sVPYH
p4675
I4674
sVYHI
p4676
I4675
sVHIV
p4677
I4676
sVNIV
p4678
I4677
sVNHA
p4679
I4678
sVWFP
p4680
I4679
sVCSN
p4681
I4680
sVDYQ
p4682
I4681
sVYQA
p4683
I4682
sVIRY
p4684
I4683
sVKKM
p4685
I4684
sVKMM
p4686
I4685
sVMMD
p4687
I4686
sVVEF
p4688
I4687
sVHML
p4689
I4688
sVTMC
p4690
I4689
sVMCA
p4691
I4690
sVCAT
p4692
I4691
sVTRT
p4693
I4692
sVICA
p4694
I4693
sVENY
p4695
I4694
sVNYQ
p4696
I4695
sVYQT
p4697
I4696
sVMPP
p4698
I4697
sVQHE
p4699
I4698
sVHEG
p4700
I4699
sVARD
p4701
I4700
sVVTL
p4702
I4701
sVNRL
p4703
I4702
sVRLQ
p4704
I4703
sVNME
p4705
I4704
sVDA=
p4706
I4705
sV-ML
p4707
I4706
sVSAP
p4708
I4707
sVAPG
p4709
I4708
sVQQT
p4710
I4709
sVNIN
p4711
I4710
sVINP
p4712
I4711
sVQQP
p4713
I4712
sVQPR
p4714
I4713
sVPRT
p4715
I4714
sVRTR
p4716
I4715
sVNPR
p4717
I4716
sVRPK
p4718
I4717
sVPKT
p4719
I4718
sVKTR
p4720
I4719
sVKDL
p4721
I4720
sVPVN
p4722
I4721
sVHVT
p4723
I4722
sVVTV
p4724
I4723
sVPPW
p4725
I4724
sVPWK
p4726
I4725
sVWKA
p4727
I4726
sVKQP
p4728
I4727
sVQPA
p4729
I4728
sVTIH
p4730
I4729
sVIHV
p4731
I4730
sVAQK
p4732
I4731
sVQKI
p4733
I4732
sVGPR
p4734
I4733
sVPRK
p4735
I4734
sVDYP
p4736
I4735
sVYPM
p4737
I4736
sVPMD
p4738
I4737
sVMDG
p4739
I4738
sVSFE
p4740
I4739
sVPHT
p4741
I4740
sVHTM
p4742
I4741
sVMDM
p4743
I4742
sVDMS
p4744
I4743
sVEKP
p4745
I4744
sVVPD
p4746
I4745
sVPDY
p4747
I4746
sVDYH
p4748
I4747
sVYHE
p4749
I4748
sVIHT
p4750
I4749
sVHTY
p4751
I4750
sVREM
p4752
I4751
sVGYM
p4753
I4752
sVYMK
p4754
I4753
sVPDI
p4755
I4754
sVDIT
p4756
I4755
sVSMR
p4757
I4756
sVVDW
p4758
I4757
sVDWL
p4759
I4758
sVEYK
p4760
I4759
sVNYI
p4761
I4760
sVSSM
p4762
I4761
sVSKF
p4763
I4762
sVEIY
p4764
I4763
sVIYP
p4765
I4764
sVVYI
p4766
I4765
sVDTY
p4767
I4766
sVTYT
p4768
I4767
sVKQV
p4769
I4768
sVLRM
p4770
I4769
sVRME
p4771
I4770
sVTFD
p4772
I4771
sVTVN
p4773
I4772
sVVNQ
p4774
I4773
sVTQY
p4775
I4774
sVQYF
p4776
I4775
sVHQQ
p4777
I4776
sVPAN
p4778
I4777
sVNCK
p4779
I4778
sVVES
p4780
I4779
sVDAD
p4781
I4780
sVYLK
p4782
I4781
sVLKY
p4783
I4782
sVAFH
p4784
I4783
sVTVT
p4785
I4784
sVQSW
p4786
I4785
sVWPE
p4787
I4786
sVKPC
p4788
I4787
sVCLM
p4789
I4788
sVDLH
p4790
I4789
sVHQT
p4791
I4790
sVHAQ
p4792
I4791
sVYKN
p4793
I4792
sVSKY
p4794
I4793
sVMVQ
p4795
I4794
sVRDM
p4796
I4795
sVKSP
p4797
I4796
sVSPP
p4798
I4797
sVEIQ
p4799
I4798
sVIQM
p4800
I4799
sVNVA
p4801
I4800
sVAPA
p4802
I4801
sVPAG
p4803
I4802
sVYGK
p4804
I4803
sVGAR
p4805
I4804
sVNRF
p4806
I4805
sVDTT
p4807
I4806
sVSNS
p4808
I4807
sVNSF
p4809
I4808
sVFVR
p4810
I4809
sVDSY
p4811
I4810
sVSDS
p4812
I4811
sVEDR
p4813
I4812
sVERQ
p4814
I4813
sVVAF
p4815
I4814
sVAFA
p4816
I4815
sVTNV
p4817
I4816
sVYSA
p4818
I4817
sVAAH
p4819
I4818
sVAHE
p4820
I4819
sVMAI
p4821
I4820
sVFEA
p4822
I4821
sVAKD
p4823
I4822
sVKDF
p4824
I4823
sVHVK
p4825
I4824
sVFNN
p4826
I4825
sVNDW
p4827
I4826
sVDWW
p4828
I4827
sVGCE
p4829
I4828
sVCEI
p4830
I4829
sVIGF
p4831
I4830
sVENM
p4832
I4831
sVNMR
p4833
I4832
sVMRL
p4834
I4833
sVLQH
p4835
I4834
sVHEQ
p4836
I4835
sVFYS
p4837
I4836
sVSGG
p4838
I4837
sVIVP
p4839
I4838
sVKST
p4840
I4839
sVTPP
p4841
I4840
sVPPS
p4842
I4841
sVDID
p4843
I4842
sVNHR
p4844
I4843
sVHRS
p4845
I4844
sVKPS
p4846
I4845
sVSAN
p4847
I4846
sVPHS
p4848
I4847
sVKRM
p4849
I4848
sVRMP
p4850
I4849
sVMPF
p4851
I4850
sVFKK
p4852
I4851
sVTEH
p4853
I4852
sVEHT
p4854
I4853
sVHTP
p4855
I4854
sVPYD
p4856
I4855
sVYDV
p4857
I4856
sVMRP
p4858
I4857
sVRPV
p4859
I4858
sVKGY
p4860
I4859
sVGYE
p4861
I4860
sVTDM
p4862
I4861
sVDMM
p4863
I4862
sVMMQ
p4864
I4863
sVMQK
p4865
I4864
sVKHR
p4866
I4865
sVHRF
p4867
I4866
sVSIT
p4868
I4867
sVDIS
p4869
I4868
sVSKH
p4870
I4869
sVKHA
p4871
I4870
sVHAI
p4872
I4871
sVERS
p4873
I4872
sVTRS
p4874
I4873
sVVQS
p4875
I4874
sVQSE
p4876
I4875
sVFEL
p4877
I4876
sVART
p4878
I4877
sVDTI
p4879
I4878
sVINH
p4880
I4879
sVHPA
p4881
I4880
sVPAQ
p4882
I4881
sVKTS
p4883
I4882
sVPII
p4884
I4883
sVIVY
p4885
I4884
sVKSQ
p4886
I4885
sVQAK
p4887
I4886
sVVQM
p4888
I4887
sVAAD
p4889
I4888
sVAQC
p4890
I4889
sVFDV
p4891
I4890
sVENQ
p4892
I4891
sVNQL
p4893
I4892
sVACE
p4894
I4893
sVCEH
p4895
I4894
sVADY
p4896
I4895
sVDYL
p4897
I4896
sVEAY
p4898
I4897
sVAYW
p4899
I4898
sVKAT
p4900
I4899
sVTHP
p4901
I4900
sVPNP
p4902
I4901
sVQGD
p4903
I4902
sVDQR
p4904
I4903
sVQRT
p4905
I4904
sVKKS
p4906
I4905
sVSQH
p4907
I4906
sVAPH
p4908
I4907
sVPHH
p4909
I4908
sVHNH
p4910
I4909
sVGTS
p4911
I4910
sVFDS
p4912
I4911
sVSET
p4913
I4912
sVQES
p4914
I4913
sVESR
p4915
I4914
sVSAY
p4916
I4915
sVYVE
p4917
I4916
sVPKE
p4918
I4917
sVKED
p4919
I4918
sVSHD
p4920
I4919
sVDHV
p4921
I4920
sVVDH
p4922
I4921
sVDHY
p4923
I4922
sVHYA
p4924
I4923
sVASH
p4925
I4924
sVDHN
p4926
I4925
sVETH
p4927
I4926
sVTHG
p4928
I4927
sVSDH
p4929
I4928
sVDHR
p4930
I4929
sVHRH
p4931
I4930
sVRHR
p4932
I4931
sVEQD
p4933
I4932
sVQDH
p4934
I4933
sVHNE
p4935
I4934
sVNEC
p4936
I4935
sVCNK
p4937
I4936
sVNKQ
p4938
I4937
sVRHK
p4939
I4938
sVKSK
p4940
I4939
sVKDG
p4941
I4940
sVEWN
p4942
I4941
sVWNR
p4943
I4942
sVDVY
p4944
I4943
sVYIR
p4945
I4944
sVRQ=
p4946
I4945
sVLFC
p4947
I4946
sVFCR
p4948
I4947
sVCRK
p4949
I4948
sVRKG
p4950
I4949
sVHEV
p4951
I4950
sVVKS
p4952
I4951
sVKSH
p4953
I4952
sVHKF
p4954
I4953
sVTAR
p4955
I4954
sVRFF
p4956
I4955
sVQPT
p4957
I4956
sVFCS
p4958
I4957
sVSHC
p4959
I4958
sVHCT
p4960
I4959
sVDFI
p4961
I4960
sVFIW
p4962
I4961
sVWGI
p4963
I4962
sVLQC
p4964
I4963
sVCSF
p4965
I4964
sVVHR
p4966
I4965
sVHRR
p4967
I4966
sVRCH
p4968
I4967
sVCHE
p4969
I4968
sVHEF
p4970
I4969
sVFEC
p4971
I4970
sVECP
p4972
I4971
sVCPG
p4973
I4972
sVPGA
p4974
I4973
sVPQT
p4975
I4974
sVQTD
p4976
I4975
sVDDP
p4977
I4976
sVNKH
p4978
I4977
sVHSY
p4979
I4978
sVFCD
p4980
I4979
sVCDH
p4981
I4980
sVHCG
p4982
I4981
sVCGS
p4983
I4982
sVLLY
p4984
I4983
sVHQG
p4985
I4984
sVQGM
p4986
I4985
sVGMK
p4987
I4986
sVKCS
p4988
I4987
sVCSC
p4989
I4988
sVSCC
p4990
I4989
sVCCE
p4991
I4990
sVNVH
p4992
I4991
sVRCV
p4993
I4992
sVCGV
p4994
I4993
sVDHT
p4995
I4994
sVHTE
p4996
I4995
sVDEI
p4997
I4996
sVTVG
p4998
I4997
sVEAR
p4999
I4998
sVARN
p5000
I4999
sVPYV
p5001
I5000
sVIPD
p5002
I5001
sVLTK
p5003
I5002
sVVWN
p5004
I5003
sVWNE
p5005
I5004
sVVWD
p5006
I5005
sVWDW
p5007
I5006
sVDWD
p5008
I5007
sVWDR
p5009
I5008
sVRTS
p5010
I5009
sVRND
p5011
I5010
sVDFM
p5012
I5011
sVMGA
p5013
I5012
sVPVD
p5014
I5013
sVGWY
p5015
I5014
sVEYY
p5016
I5015
sVYNV
p5017
I5016
sVNVP
p5018
I5017
sVNCS
p5019
I5018
sVQKF
p5020
I5019
sVCNY
p5021
I5020
sVYPL
p5022
I5021
sVYER
p5023
I5022
sVCFF
p5024
I5023
sVFFG
p5025
I5024
sVLHI
p5026
I5025
sVHIS
p5027
I5026
sVKVM
p5028
I5027
sVMLA
p5029
I5028
sVKKD
p5030
I5029
sVKDV
p5031
I5030
sVIVQ
p5032
I5031
sVGRP
p5033
I5032
sVRPH
p5034
I5033
sVPHF
p5035
I5034
sVTQL
p5036
I5035
sVSTF
p5037
I5036
sVDRL
p5038
I5037
sVFVM
p5039
I5038
sVMEY
p5040
I5039
sVEYV
p5041
I5040
sVYVT
p5042
I5041
sVDLM
p5043
I5042
sVMYH
p5044
I5043
sVQLG
p5045
I5044
sVPHA
p5046
I5045
sVAEI
p5047
I5046
sVLHN
p5048
I5047
sVHNQ
p5049
I5048
sVIYR
p5050
I5049
sVNVM
p5051
I5050
sVEGH
p5052
I5051
sVHIK
p5053
I5052
sVGMC
p5054
I5053
sVFCG
p5055
I5054
sVEII
p5056
I5055
sVAYQ
p5057
I5056
sVYQP
p5058
I5057
sVQPY
p5059
I5058
sVWWS
p5060
I5059
sVWSF
p5061
I5060
sVYEM
p5062
I5061
sVGQP
p5063
I5062
sVQPP
p5064
I5063
sVFQA
p5065
I5064
sVMEQ
p5066
I5065
sVVTY
p5067
I5066
sVTYP
p5068
I5067
sVPKS
p5069
I5068
sVAIC
p5070
I5069
sVCKG
p5071
I5070
sVTKH
p5072
I5071
sVKHP
p5073
I5072
sVPTI
p5074
I5073
sVRAH
p5075
I5074
sVAHG
p5076
I5075
sVHGF
p5077
I5076
sVGFF
p5078
I5077
sVFRW
p5079
I5078
sVRWI
p5080
I5079
sVWID
p5081
I5080
sVIDW
p5082
I5081
sVWER
p5083
I5082
sVPFR
p5084
I5083
sVRPC
p5085
I5084
sVCGR
p5086
I5085
sVGEN
p5087
I5086
sVDKF
p5088
I5087
sVIDQ
p5089
I5088
sVDQA
p5090
I5089
sVFQG
p5091
I5090
sVTYV
p5092
I5091
sVYVN
p5093
I5092
sVNPD
p5094
I5093
sVHPD
p5095
I5094
sVARS
p5096
I5095
sVVM=
p5097
I5096
sV-MP
p5098
I5097
sVMPH
p5099
I5098
sVHTL
p5100
I5099
sVTLW
p5101
I5100
sVLWM
p5102
I5101
sVWMV
p5103
I5102
sVVWV
p5104
I5103
sVSNQ
p5105
I5104
sVCDR
p5106
I5105
sVAVK
p5107
I5106
sVNNR
p5108
I5107
sVYIS
p5109
I5108
sVLQA
p5110
I5109
sVGIN
p5111
I5110
sVINT
p5112
I5111
sVFSS
p5113
I5112
sVSYN
p5114
I5113
sVSWF
p5115
I5114
sVWFK
p5116
I5115
sVNPY
p5117
I5116
sVPYK
p5118
I5117
sVYKT
p5119
I5118
sVGNM
p5120
I5119
sVMDT
p5121
I5120
sVTKI
p5122
I5121
sVIQR
p5123
I5122
sVQNV
p5124
I5123
sVVSH
p5125
I5124
sVHLI
p5126
I5125
sVLHM
p5127
I5126
sVHMK
p5128
I5127
sVMKQ
p5129
I5128
sVQHI
p5130
I5129
sVHIL
p5131
I5130
sVVEC
p5132
I5131
sVCLE
p5133
I5132
sVLDT
p5134
I5133
sVFHF
p5135
I5134
sVHFS
p5136
I5135
sVETN
p5137
I5136
sVFRN
p5138
I5137
sVRNV
p5139
I5138
sVFQV
p5140
I5139
sVQVM
p5141
I5140
sVVMK
p5142
I5141
sVLEF
p5143
I5142
sVEFD
p5144
I5143
sVDDC
p5145
I5144
sVLNG
p5146
I5145
sVNFR
p5147
I5146
sVNDR
p5148
I5147
sVPRF
p5149
I5148
sVRFY
p5150
I5149
sVYLF
p5151
I5150
sVFYD
p5152
I5151
sVTLY
p5153
I5152
sVENS
p5154
I5153
sVVPC
p5155
I5154
sVQHL
p5156
I5155
sVNLM
p5157
I5156
sVCED
p5158
I5157
sVDAW
p5159
I5158
sVAWP
p5160
I5159
sVQNH
p5161
I5160
sVNID
p5162
I5161
sVSFH
p5163
I5162
sVHSM
p5164
I5163
sVMPE
p5165
I5164
sVETC
p5166
I5165
sVTCQ
p5167
I5166
sVCQW
p5168
I5167
sVQWP
p5169
I5168
sVMKY
p5170
I5169
sVTGC
p5171
I5170
sVGCI
p5172
I5171
sVFSL
p5173
I5172
sVNLP
p5174
I5173
sVFSK
p5175
I5174
sVKEQ
p5176
I5175
sVNNF
p5177
I5176
sVCEF
p5178
I5177
sVEFL
p5179
I5178
sVSFT
p5180
I5179
sVFTQ
p5181
I5180
sVDWP
p5182
I5181
sVWPA
p5183
I5182
sVANY
p5184
I5183
sVLCD
p5185
I5184
sVCDS
p5186
I5185
sVPSH
p5187
I5186
sVHVR
p5188
I5187
sVVRG
p5189
I5188
sVDVR
p5190
I5189
sVSEC
p5191
I5190
sVCHR
p5192
I5191
sVRTA
p5193
I5192
sVMCC
p5194
I5193
sVCCA
p5195
I5194
sVCAL
p5196
I5195
sVFLL
p5197
I5196
sVLTG
p5198
I5197
sVTGV
p5199
I5198
sVLCH
p5200
I5199
sVRFH
p5201
I5200
sVFHG
p5202
I5201
sVHGL
p5203
I5202
sVLWY
p5204
I5203
sVWYM
p5205
I5204
sVMKM
p5206
I5205
sVMMW
p5207
I5206
sVMWA
p5208
I5207
sVWAW
p5209
I5208
sVRNI
p5210
I5209
sVNIC
p5211
I5210
sVCYD
p5212
I5211
sVYDA
p5213
I5212
sVAFV
p5214
I5213
sVERD
p5215
I5214
sVYWV
p5216
I5215
sVWVE
p5217
I5216
sVFNP
p5218
I5217
sVPFK
p5219
I5218
sVCLH
p5220
I5219
sVKRD
p5221
I5220
sVGKW
p5222
I5221
sVWII
p5223
I5222
sVIDS
p5224
I5223
sVEWC
p5225
I5224
sVWCK
p5226
I5225
sVCKY
p5227
I5226
sVSHF
p5228
I5227
sVRLF
p5229
I5228
sVENN
p5230
I5229
sVNDA
p5231
I5230
sVKAI
p5232
I5231
sVRFC
p5233
I5232
sVFCK
p5234
I5233
sVRKI
p5235
I5234
sVKIM
p5236
I5235
sVNTK
p5237
I5236
sVTKT
p5238
I5237
sVLEW
p5239
I5238
sVEWP
p5240
I5239
sVWPM
p5241
I5240
sVGFW
p5242
I5241
sVFWV
p5243
I5242
sVKS=
p5244
I5243
sV-MN
p5245
I5244
sVMNR
p5246
I5245
sVNRQ
p5247
I5246
sVNHF
p5248
I5247
sVAFC
p5249
I5248
sVCKD
p5250
I5249
sVDHD
p5251
I5250
sVHDS
p5252
I5251
sVPSQ
p5253
I5252
sVSQT
p5254
I5253
sVMGR
p5255
I5254
sVGYD
p5256
I5255
sVIRP
p5257
I5256
sVPNF
p5258
I5257
sVPPV
p5259
I5258
sVVNV
p5260
I5259
sVVTC
p5261
I5260
sVTCN
p5262
I5261
sVCNI
p5263
I5262
sVTET
p5264
I5263
sVMDY
p5265
I5264
sVDYR
p5266
I5265
sVRVN
p5267
I5266
sVQQW
p5268
I5267
sVQWN
p5269
I5268
sVWND
p5270
I5269
sVSRL
p5271
I5270
sVPDD
p5272
I5271
sVSIW
p5273
I5272
sVIWK
p5274
I5273
sVFFA
p5275
I5274
sVCPM
p5276
I5275
sVNFP
p5277
I5276
sVFPM
p5278
I5277
sVMDV
p5279
I5278
sVVQT
p5280
I5279
sVQTC
p5281
I5280
sVTCT
p5282
I5281
sVESF
p5283
I5282
sVFGY
p5284
I5283
sVTMN
p5285
I5284
sVDGP
p5286
I5285
sVVQV
p5287
I5286
sVYCT
p5288
I5287
sVCTK
p5289
I5288
sVKHY
p5290
I5289
sVHYN
p5291
I5290
sVYNT
p5292
I5291
sVNTG
p5293
I5292
sVTCI
p5294
I5293
sVCIE
p5295
I5294
sVIEV
p5296
I5295
sVKFH
p5297
I5296
sVRQM
p5298
I5297
sVMGY
p5299
I5298
sVGYY
p5300
I5299
sVQMY
p5301
I5300
sVLSW
p5302
I5301
sVWVS
p5303
I5302
sVSFW
p5304
I5303
sVFWI
p5305
I5304
sVINM
p5306
I5305
sVMDA
p5307
I5306
sVPAR
p5308
I5307
sVLTM
p5309
I5308
sVSYV
p5310
I5309
sVIWM
p5311
I5310
sVWMA
p5312
I5311
sVVNF
p5313
I5312
sVRQH
p5314
I5313
sVQHK
p5315
I5314
sVRRR
p5316
I5315
sVQKR
p5317
I5316
sVNKE
p5318
I5317
sVFSG
p5319
I5318
sVGYG
p5320
I5319
sVYGM
p5321
I5320
sVQVK
p5322
I5321
sVANP
p5323
I5322
sVPKD
p5324
I5323
sVKFV
p5325
I5324
sVRID
p5326
I5325
sVIDT
p5327
I5326
sVAFP
p5328
I5327
sVFPL
p5329
I5328
sVIFY
p5330
I5329
sVFYW
p5331
I5330
sVWIT
p5332
I5331
sVTYK
p5333
I5332
sVYKI
p5334
I5333
sVIIR
p5335
I5334
sVVHK
p5336
I5335
sVHKK
p5337
I5336
sVKK=
p5338
I5337
sVMAE
p5339
I5338
sVQMF
p5340
I5339
sVMFH
p5341
I5340
sVTHT
p5342
I5341
sVHTI
p5343
I5342
sVTIF
p5344
I5343
sVEVF
p5345
I5344
sVVFQ
p5346
I5345
sVFQP
p5347
I5346
sVPQM
p5348
I5347
sVQMA
p5349
I5348
sVGPY
p5350
I5349
sVYLQ
p5351
I5350
sVQRG
p5352
I5351
sVYVC
p5353
I5352
sVVCE
p5354
I5353
sVEGP
p5355
I5354
sVASS
p5356
I5355
sVSYP
p5357
I5356
sVYPQ
p5358
I5357
sVICN
p5359
I5358
sVNYV
p5360
I5359
sVYVG
p5361
I5360
sVKNI
p5362
I5361
sVNIH
p5363
I5362
sVAHS
p5364
I5363
sVKHC
p5365
I5364
sVICT
p5366
I5365
sVKDM
p5367
I5366
sVVGF
p5368
I5367
sVARM
p5369
I5368
sVCIR
p5370
I5369
sVEMD
p5371
I5370
sVLMF
p5372
I5371
sVDST
p5373
I5372
sVIYD
p5374
I5373
sVRMD
p5375
I5374
sVMDR
p5376
I5375
sVCVT
p5377
I5376
sVDDI
p5378
I5377
sVDIQ
p5379
I5378
sVIQI
p5380
I5379
sVQIR
p5381
I5380
sVWEG
p5382
I5381
sVFGD
p5383
I5382
sVTDV
p5384
I5383
sVHRQ
p5385
I5384
sVRQF
p5386
I5385
sVFKT
p5387
I5386
sVKTP
p5388
I5387
sVTPK
p5389
I5388
sVYKD
p5390
I5389
sVDIN
p5391
I5390
sVITK
p5392
I5391
sVFVQ
p5393
I5392
sVLYY
p5394
I5393
sVYYP
p5395
I5394
sVLMP
p5396
I5395
sVFSD
p5397
I5396
sVGGM
p5398
I5397
sVMFG
p5399
I5398
sVPGY
p5400
I5399
sVYSF
p5401
I5400
sVSFP
p5402
I5401
sVFPH
p5403
I5402
sVPHY
p5404
I5403
sVFPT
p5405
I5404
sVFHP
p5406
I5405
sVTKS
p5407
I5406
sVSNA
p5408
I5407
sVMKH
p5409
I5408
sVHGT
p5410
I5409
sVTES
p5411
I5410
sVGCD
p5412
I5411
sVDDK
p5413
I5412
sVKNT
p5414
I5413
sVNGE
p5415
I5414
sVLTY
p5416
I5415
sVYAT
p5417
I5416
sVAGV
p5418
I5417
sVQDN
p5419
I5418
sVAMQ
p5420
I5419
sVKRH
p5421
I5420
sVRHA
p5422
I5421
sVHAN
p5423
I5422
sVFDY
p5424
I5423
sVYAV
p5425
I5424
sVDVK
p5426
I5425
sVHSQ
p5427
I5426
sVVRD
p5428
I5427
sVMRN
p5429
I5428
sVDLY
p5430
I5429
sVPLH
p5431
I5430
sVVED
p5432
I5431
sVGHD
p5433
I5432
sVHDK
p5434
I5433
sVLDH
p5435
I5434
sVHPN
p5436
I5435
sVAIH
p5437
I5436
sVAMM
p5438
I5437
sVLPC
p5439
I5438
sVSGR
p5440
I5439
sVEHD
p5441
I5440
sVTTY
p5442
I5441
sVYDG
p5443
I5442
sVHIA
p5444
I5443
sVFEP
p5445
I5444
sVENA
p5446
I5445
sVEGV
p5447
I5446
sVDMA
p5448
I5447
sVTSW
p5449
I5448
sVSWQ
p5450
I5449
sVWQV
p5451
I5450
sVKPY
p5452
I5451
sVPYE
p5453
I5452
sVPDK
p5454
I5453
sVNNA
p5455
I5454
sVNAF
p5456
I5455
sVTLM
p5457
I5456
sVMDN
p5458
I5457
sVNYE
p5459
I5458
sVVIQ
p5460
I5459
sVTRQ
p5461
I5460
sVQQI
p5462
I5461
sVFRK
p5463
I5462
sVNKM
p5464
I5463
sVHDY
p5465
I5464
sVGKI
p5466
I5465
sVKI=
p5467
I5466
sV-MH
p5468
I5467
sVMHS
p5469
I5468
sVHAR
p5470
I5469
sVARP
p5471
I5470
sVRPY
p5472
I5471
sVPYM
p5473
I5472
sVYMA
p5474
I5473
sVMAS
p5475
I5474
sVAHL
p5476
I5475
sVEQW
p5477
I5476
sVLSA
p5478
I5477
sVAHC
p5479
I5478
sVPHP
p5480
I5479
sVIDH
p5481
I5480
sVHDL
p5482
I5481
sVPWQ
p5483
I5482
sVCDV
p5484
I5483
sVVNH
p5485
I5484
sVQHV
p5486
I5485
sVRAT
p5487
I5486
sVCNR
p5488
I5487
sVRTH
p5489
I5488
sVHHD
p5490
I5489
sVHDG
p5491
I5490
sVDGA
p5492
I5491
sVLMC
p5493
I5492
sVCAE
p5494
I5493
sVSNR
p5495
I5494
sVDSC
p5496
I5495
sVSCK
p5497
I5496
sVRVC
p5498
I5497
sVGNR
p5499
I5498
sVNRK
p5500
I5499
sVPGI
p5501
I5500
sVYTR
p5502
I5501
sVSYA
p5503
I5502
sVAAW
p5504
I5503
sVAWI
p5505
I5504
sVLA=
p5506
I5505
sVYHS
p5507
I5506
sVDME
p5508
I5507
sVMER
p5509
I5508
sVRRW
p5510
I5509
sVRWG
p5511
I5510
sVWGQ
p5512
I5511
sVGQV
p5513
I5512
sVQAV
p5514
I5513
sVGPT
p5515
I5514
sVERT
p5516
I5515
sVQQD
p5517
I5516
sVDNN
p5518
I5517
sVSDI
p5519
I5518
sVGLY
p5520
I5519
sVYMD
p5521
I5520
sVYSY
p5522
I5521
sVYEQ
p5523
I5522
sVMSP
p5524
I5523
sVKIY
p5525
I5524
sVYQN
p5526
I5525
sVFYK
p5527
I5526
sVYKG
p5528
I5527
sVNGH
p5529
I5528
sVNTP
p5530
I5529
sVFMS
p5531
I5530
sVMSD
p5532
I5531
sVGVM
p5533
I5532
sVVMR
p5534
I5533
sVVVK
p5535
I5534
sVMCH
p5536
I5535
sVNMT
p5537
I5536
sVMTS
p5538
I5537
sVVHS
p5539
I5538
sVHSP
p5540
I5539
sVITQ
p5541
I5540
sVSPN
p5542
I5541
sVPNV
p5543
I5542
sVPAH
p5544
I5543
sVHAS
p5545
I5544
sVMKS
p5546
I5545
sVCSV
p5547
I5546
sVSRC
p5548
I5547
sVRCS
p5549
I5548
sVPSN
p5550
I5549
sVTNN
p5551
I5550
sVNRS
p5552
I5551
sVRST
p5553
I5552
sVSIC
p5554
I5553
sVSPD
p5555
I5554
sVFPK
p5556
I5555
sVQYI
p5557
I5556
sVYIK
p5558
I5557
sVEPD
p5559
I5558
sVCLG
p5560
I5559
sVIKQ
p5561
I5560
sVHSC
p5562
I5561
sVCSG
p5563
I5562
sVNPT
p5564
I5563
sVFPF
p5565
I5564
sVFMD
p5566
I5565
sVYFS
p5567
I5566
sVMDD
p5568
I5567
sVKDY
p5569
I5568
sVGNC
p5570
I5569
sVNCE
p5571
I5570
sVVNS
p5572
I5571
sVQSF
p5573
I5572
sVHYR
p5574
I5573
sVYRI
p5575
I5574
sVRDQ
p5576
I5575
sVSFQ
p5577
I5576
sVFQH
p5578
I5577
sVESW
p5579
I5578
sVSWK
p5580
I5579
sVWKS
p5581
I5580
sVSRR
p5582
I5581
sVRSD
p5583
I5582
sVDGY
p5584
I5583
sVSGC
p5585
I5584
sVGCH
p5586
I5585
sVCHY
p5587
I5586
sVEGQ
p5588
I5587
sVGQH
p5589
I5588
sVHNY
p5590
I5589
sVCAG
p5591
I5590
sVDCI
p5592
I5591
sVKNC
p5593
I5592
sVPAC
p5594
I5593
sVGIH
p5595
I5594
sVIHE
p5596
I5595
sVHEE
p5597
I5596
sVQSP
p5598
I5597
sVVPQ
p5599
I5598
sVIEP
p5600
I5599
sVQMI
p5601
I5600
sVMIQ
p5602
I5601
sVIQV
p5603
I5602
sVVKW
p5604
I5603
sVKWA
p5605
I5604
sVFKN
p5606
I5605
sVQYS
p5607
I5606
sVYSW
p5608
I5607
sVSWM
p5609
I5608
sVWMC
p5610
I5609
sVSFA
p5611
I5610
sVYKH
p5612
I5611
sVHTN
p5613
I5612
sVYFA
p5614
I5613
sVAPD
p5615
I5614
sVKMH
p5616
I5615
sVMHQ
p5617
I5616
sVHQS
p5618
I5617
sVQSA
p5619
I5618
sVSAM
p5620
I5619
sVAMY
p5621
I5620
sVMYE
p5622
I5621
sVLCQ
p5623
I5622
sVCQG
p5624
I5623
sVGMH
p5625
I5624
sVLQF
p5626
I5625
sVIMK
p5627
I5626
sVRKM
p5628
I5627
sVKMV
p5629
I5628
sVTKC
p5630
I5629
sVCPN
p5631
I5630
sVSGQ
p5632
I5631
sVDSM
p5633
I5632
sVSMH
p5634
I5633
sVCFY
p5635
I5634
sVESH
p5636
I5635
sVEFP
p5637
I5636
sVPAM
p5638
I5637
sVMLV
p5639
I5638
sVSDQ
p5640
I5639
sVQLP
p5641
I5640
sVAKP
p5642
I5641
sVYFH
p5643
I5642
sVFHR
p5644
I5643
sVHRK
p5645
I5644
sVRK=
p5646
I5645
sVRLC
p5647
I5646
sVLCR
p5648
I5647
sVCAS
p5649
I5648
sVDDW
p5650
I5649
sVDWR
p5651
I5650
sVWRC
p5652
I5651
sVRCA
p5653
I5652
sVMHE
p5654
I5653
sVGHM
p5655
I5654
sVHMV
p5656
I5655
sVMVN
p5657
I5656
sVNLD
p5658
I5657
sVSQU
p5659
I5658
sVQUG
p5660
I5659
sVUGK
p5661
I5660
sVNYT
p5662
I5661
sVYTQ
p5663
I5662
sVARY
p5664
I5663
sVRYA
p5665
I5664
sVAEC
p5666
I5665
sVECG
p5667
I5666
sVPCN
p5668
I5667
sVCNQ
p5669
I5668
sVQFG
p5670
I5669
sVMFS
p5671
I5670
sVAHP
p5672
I5671
sVPLW
p5673
I5672
sVLWK
p5674
I5673
sVWKW
p5675
I5674
sVKWM
p5676
I5675
sVWMK
p5677
I5676
sVIQP
p5678
I5677
sVIKW
p5679
I5678
sVKWN
p5680
I5679
sVWNF
p5681
I5680
sVNFT
p5682
I5681
sVTKF
p5683
I5682
sVKFL
p5684
I5683
sVNGC
p5685
I5684
sVKRY
p5686
I5685
sVGPM
p5687
I5686
sVPME
p5688
I5687
sVLPH
p5689
I5688
sVHYF
p5690
I5689
sVYF=
p5691
I5690
sVNEN
p5692
I5691
sVRMY
p5693
I5692
sVENH
p5694
I5693
sVYGS
p5695
I5694
sVANM
p5696
I5695
sVMNA
p5697
I5696
sVNAN
p5698
I5697
sVTPG
p5699
I5698
sVWQA
p5700
I5699
sVATI
p5701
I5700
sVIST
p5702
I5701
sVQYG
p5703
I5702
sVPKK
p5704
I5703
sVKNP
p5705
I5704
sVRAC
p5706
I5705
sVEWK
p5707
I5706
sVDSN
p5708
I5707
sVFTV
p5709
I5708
sVEAF
p5710
I5709
sVLFH
p5711
I5710
sVNAY
p5712
I5711
sVATK
p5713
I5712
sVRAF
p5714
I5713
sVAMV
p5715
I5714
sVIYA
p5716
I5715
sVGKM
p5717
I5716
sVMHK
p5718
I5717
sVTCY
p5719
I5718
sVCYN
p5720
I5719
sVYNQ
p5721
I5720
sVGIA
p5722
I5721
sVSPC
p5723
I5722
sVPCA
p5724
I5723
sVETG
p5725
I5724
sVTGH
p5726
I5725
sVGHG
p5727
I5726
sVGRQ
p5728
I5727
sVRQC
p5729
I5728
sVCQN
p5730
I5729
sVQNG
p5731
I5730
sVPGW
p5732
I5731
sVFAM
p5733
I5732
sVFQC
p5734
I5733
sVQCI
p5735
I5734
sVCIT
p5736
I5735
sVITM
p5737
I5736
sVTME
p5738
I5737
sVGWT
p5739
I5738
sVWTD
p5740
I5739
sVRDW
p5741
I5740
sVWPW
p5742
I5741
sVPWI
p5743
I5742
sVGEF
p5744
I5743
sVLDW
p5745
I5744
sVDWI
p5746
I5745
sVRNM
p5747
I5746
sVNMS
p5748
I5747
sVTEN
p5749
I5748
sVDIE
p5750
I5749
sVENC
p5751
I5750
sVNCG
p5752
I5751
sVLAH
p5753
I5752
sVHRI
p5754
I5753
sVRYW
p5755
I5754
sVYWR
p5756
I5755
sVRWN
p5757
I5756
sVVFY
p5758
I5757
sVYWL
p5759
I5758
sVIAS
p5760
I5759
sVEHY
p5761
I5760
sVQPN
p5762
I5761
sVPNW
p5763
I5762
sVWLT
p5764
I5763
sVNKA
p5765
I5764
sVLFT
p5766
I5765
sVKMY
p5767
I5766
sVMYS
p5768
I5767
sVQAY
p5769
I5768
sVRFD
p5770
I5769
sVFDC
p5771
I5770
sVCFV
p5772
I5771
sVLRC
p5773
I5772
sVFKI
p5774
I5773
sVYWN
p5775
I5774
sVWNS
p5776
I5775
sVLGM
p5777
I5776
sVEMQ
p5778
I5777
sVMQT
p5779
I5778
sVFPQ
p5780
I5779
sVEDW
p5781
I5780
sVDWN
p5782
I5781
sVSVM
p5783
I5782
sVMYD
p5784
I5783
sVGIM
p5785
I5784
sVPSF
p5786
I5785
sVCIY
p5787
I5786
sVYFI
p5788
I5787
sVGNY
p5789
I5788
sVPYP
p5790
I5789
sVYPN
p5791
I5790
sVTTG
p5792
I5791
sVPEM
p5793
I5792
sVEMP
p5794
I5793
sVELH
p5795
I5794
sVKAV
p5796
I5795
sVVPM
p5797
I5796
sVPMP
p5798
I5797
sVQCH
p5799
I5798
sVRIV
p5800
I5799
sVEDP
p5801
I5800
sVVQH
p5802
I5801
sVQHT
p5803
I5802
sVRNH
p5804
I5803
sVNHI
p5805
I5804
sVFYF
p5806
I5805
sVTTI
p5807
I5806
sVDYV
p5808
I5807
sVKMT
p5809
I5808
sVMTA
p5810
I5809
sVYGA
p5811
I5810
sVSFC
p5812
I5811
sVCRN
p5813
I5812
sVRNY
p5814
I5813
sVYFN
p5815
I5814
sVAIN
p5816
I5815
sVINR
p5817
I5816
sVKHV
p5818
I5817
sVHVV
p5819
I5818
sVVVQ
p5820
I5819
sVVQC
p5821
I5820
sVQCV
p5822
I5821
sVQFM
p5823
I5822
sVFMF
p5824
I5823
sVFAC
p5825
I5824
sVYTC
p5826
I5825
sVCSD
p5827
I5826
sVKQT
p5828
I5827
sVHPI
p5829
I5828
sVIIQ
p5830
I5829
sVRSW
p5831
I5830
sVGWP
p5832
I5831
sVLYR
p5833
I5832
sVDSH
p5834
I5833
sVGPI
p5835
I5834
sVIYN
p5836
I5835
sVNYR
p5837
I5836
sVIAF
p5838
I5837
sVMNI
p5839
I5838
sVQEY
p5840
I5839
sVKNQ
p5841
I5840
sVNQR
p5842
I5841
sVRRY
p5843
I5842
sVNQH
p5844
I5843
sVHQY
p5845
I5844
sVKVW
p5846
I5845
sVVWY
p5847
I5846
sVWYV
p5848
I5847
sVYVV
p5849
I5848
sVYFE
p5850
I5849
sVFEY
p5851
I5850
sVMFV
p5852
I5851
sVQHY
p5853
I5852
sVQSC
p5854
I5853
sVMLF
p5855
I5854
sVVEM
p5856
I5855
sVAFK
p5857
I5856
sVWNV
p5858
I5857
sVIDV
p5859
I5858
sVNHY
p5860
I5859
sVYFC
p5861
I5860
sVAWN
p5862
I5861
sVWNT
p5863
I5862
sVDIA
p5864
I5863
sVNPA
p5865
I5864
sVAEH
p5866
I5865
sVHTQ
p5867
I5866
sVTQC
p5868
I5867
sVSMN
p5869
I5868
sVLLW
p5870
I5869
sVWTF
p5871
I5870
sVFIK
p5872
I5871
sVKSF
p5873
I5872
sVIGM
p5874
I5873
sVEIN
p5875
I5874
sVRNN
p5876
I5875
sVNFQ
p5877
I5876
sVQTF
p5878
I5877
sVPQA
p5879
I5878
sVFRC
p5880
I5879
sVAWQ
p5881
I5880
sVWQD
p5882
I5881
sVIML
p5883
I5882
sVLAC
p5884
I5883
sVACM
p5885
I5884
sVCMP
p5886
I5885
sVKKC
p5887
I5886
sVSTE
p5888
I5887
sVETP
p5889
I5888
sVFIS
p5890
I5889
sVFYM
p5891
I5890
sVMLC
p5892
I5891
sVCAF
p5893
I5892
sVIMD
p5894
I5893
sVWSI
p5895
I5894
sVGPH
p5896
I5895
sVHHL
p5897
I5896
sVDEF
p5898
I5897
sVIWA
p5899
I5898
sVIKH
p5900
I5899
sVRIQ
p5901
I5900
sVCPH
p5902
I5901
sVVAC
p5903
I5902
sVCKR
p5904
I5903
sVMNM
p5905
I5904
sVNMP
p5906
I5905
sVMPL
p5907
I5906
sVTVM
p5908
I5907
sVQAN
p5909
I5908
sVKIW
p5910
I5909
sVWKR
p5911
I5910
sVTSM
p5912
I5911
sVYFR
p5913
I5912
sVHDI
p5914
I5913
sVDKA
p5915
I5914
sVGNH
p5916
I5915
sVNHV
p5917
I5916
sVHVS
p5918
I5917
sVYYQ
p5919
I5918
sVQSD
p5920
I5919
sVDGR
p5921
I5920
sVHIN
p5922
I5921
sVINK
p5923
I5922
sVYPS
p5924
I5923
sVIRV
p5925
I5924
sVRVQ
p5926
I5925
sVAWK
p5927
I5926
sVWKL
p5928
I5927
sVHVP
p5929
I5928
sVPMC
p5930
I5929
sVMCE
p5931
I5930
sVGTQ
p5932
I5931
sVCHS
p5933
I5932
sVNHD
p5934
I5933
sVHDT
p5935
I5934
sVTEM
p5936
I5935
sVSYQ
p5937
I5936
sVRQS
p5938
I5937
sVISQ
p5939
I5938
sVHHQ
p5940
I5939
sVPFA
p5941
I5940
sVQPV
p5942
I5941
sVQFH
p5943
I5942
sVFAQ
p5944
I5943
sVAQD
p5945
I5944
sVQDP
p5946
I5945
sVPKF
p5947
I5946
sVCDM
p5948
I5947
sVDMT
p5949
I5948
sVMTI
p5950
I5949
sVVNC
p5951
I5950
sVNCR
p5952
I5951
sVCRD
p5953
I5952
sVQDR
p5954
I5953
sVQDS
p5955
I5954
sVYVS
p5956
I5955
sVSL=
p5957
I5956
sVTNW
p5958
I5957
sVNWG
p5959
I5958
sVQDK
p5960
I5959
sVSEV
p5961
I5960
sVYAP
p5962
I5961
sVAPF
p5963
I5962
sVQMD
p5964
I5963
sVMDF
p5965
I5964
sVDFT
p5966
I5965
sVIHK
p5967
I5966
sVHKQ
p5968
I5967
sVYMF
p5969
I5968
sVMFQ
p5970
I5969
sVKQI
p5971
I5970
sVQIE
p5972
I5971
sVISA
p5973
I5972
sVAVH
p5974
I5973
sVIAK
p5975
I5974
sVERN
p5976
I5975
sVFDQ
p5977
I5976
sVIEN
p5978
I5977
sVHVI
p5979
I5978
sVDQD
p5980
I5979
sVVVY
p5981
I5980
sVVYF
p5982
I5981
sVYMP
p5983
I5982
sVPRQ
p5984
I5983
sVRQY
p5985
I5984
sVQNW
p5986
I5985
sVNWE
p5987
I5986
sVWEA
p5988
I5987
sVAKC
p5989
I5988
sVCPD
p5990
I5989
sVTFA
p5991
I5990
sVEPF
p5992
I5991
sVNCL
p5993
I5992
sVYVR
p5994
I5993
sVVMN
p5995
I5994
sVMNK
p5996
I5995
sVHVG
p5997
I5996
sVIEH
p5998
I5997
sVEHA
p5999
I5998
sVHAD
p6000
I5999
sVDGG
p6001
I6000
sVDNP
p6002
I6001
sVPV=
p6003
I6002
sVGRA
p6004
I6003
sVFAE
p6005
I6004
sVDFK
p6006
I6005
sVNYD
p6007
I6006
sVWDI
p6008
I6007
sVHLR
p6009
I6008
sVQVT
p6010
I6009
sVWEH
p6011
I6010
sVEHM
p6012
I6011
sVKYG
p6013
I6012
sVIMT
p6014
I6013
sVYGN
p6015
I6014
sVHCN
p6016
I6015
sVCNT
p6017
I6016
sVSRM
p6018
I6017
sVVLW
p6019
I6018
sVWLC
p6020
I6019
sVHES
p6021
I6020
sVGWI
p6022
I6021
sVLRW
p6023
I6022
sVRWE
p6024
I6023
sVANW
p6025
I6024
sVWKK
p6026
I6025
sVICD
p6027
I6026
sVCDF
p6028
I6027
sVKID
p6029
I6028
sVYAY
p6030
I6029
sVAYT
p6031
I6030
sVSIK
p6032
I6031
sVIYE
p6033
I6032
sVCLP
p6034
I6033
sVKSM
p6035
I6034
sVSIN
p6036
I6035
sVFAK
p6037
I6036
sVHGE
p6038
I6037
sVEQY
p6039
I6038
sVYKP
p6040
I6039
sVICH
p6041
I6040
sVCHN
p6042
I6041
sVSDK
p6043
I6042
sVKVK
p6044
I6043
sVGDW
p6045
I6044
sVWNP
p6046
I6045
sVHID
p6047
I6046
sVFAS
p6048
I6047
sVDKP
p6049
I6048
sVGLC
p6050
I6049
sVCTF
p6051
I6050
sVFGF
p6052
I6051
sVQQF
p6053
I6052
sVNDV
p6054
I6053
sVRFA
p6055
I6054
sVEMW
p6056
I6055
sVMWK
p6057
I6056
sVIHF
p6058
I6057
sVYVD
p6059
I6058
sVNAV
p6060
I6059
sVEWH
p6061
I6060
sVWHI
p6062
I6061
sVHIT
p6063
I6062
sVAKW
p6064
I6063
sVVYQ
p6065
I6064
sVTII
p6066
I6065
sVFME
p6067
I6066
sVFFS
p6068
I6067
sVRGN
p6069
I6068
sVYAK
p6070
I6069
sVKL=
p6071
I6070
sVLWV
p6072
I6071
sVWVQ
p6073
I6072
sVRNT
p6074
I6073
sVNTT
p6075
I6074
sVYRK
p6076
I6075
sVGVR
p6077
I6076
sVWRK
p6078
I6077
sVKPT
p6079
I6078
sVPTT
p6080
I6079
sVNQV
p6081
I6080
sVYIW
p6082
I6081
sVIWY
p6083
I6082
sVWYR
p6084
I6083
sVLQW
p6085
I6084
sVIWV
p6086
I6085
sVLIN
p6087
I6086
sVINE
p6088
I6087
sVNIP
p6089
I6088
sVYVY
p6090
I6089
sVRHQ
p6091
I6090
sVQNY
p6092
I6091
sVNYK
p6093
I6092
sVTAC
p6094
I6093
sVTIQ
p6095
I6094
sVSLW
p6096
I6095
sVLWR
p6097
I6096
sVFMN
p6098
I6097
sVEWE
p6099
I6098
sVPYF
p6100
I6099
sVNYY
p6101
I6100
sVYYA
p6102
I6101
sVEMK
p6103
I6102
sVMKF
p6104
I6103
sVFYV
p6105
I6104
sVGFY
p6106
I6105
sVRVS
p6107
I6106
sVYSV
p6108
I6107
sVVCM
p6109
I6108
sVIAW
p6110
I6109
sVWLL
p6111
I6110
sVEQS
p6112
I6111
sVNHC
p6113
I6112
sVPQD
p6114
I6113
sVDRC
p6115
I6114
sVFHI
p6116
I6115
sVMLW
p6117
I6116
sVLWS
p6118
I6117
sVIWQ
p6119
I6118
sVWQY
p6120
I6119
sVYA=
p6121
I6120
sVMQM
p6122
I6121
sVPAY
p6123
I6122
sVYSD
p6124
I6123
sVYTY
p6125
I6124
sVING
p6126
I6125
sVYSP
p6127
I6126
sVTCR
p6128
I6127
sVCRI
p6129
I6128
sVIMI
p6130
I6129
sVMIA
p6131
I6130
sVKMG
p6132
I6131
sVNFM
p6133
I6132
sVHHE
p6134
I6133
sVHEL
p6135
I6134
sVIVK
p6136
I6135
sVACC
p6137
I6136
sVCCV
p6138
I6137
sVCVK
p6139
I6138
sVDHL
p6140
I6139
sVYDD
p6141
I6140
sVTMA
p6142
I6141
sVAI=
p6143
I6142
sV-MK
p6144
I6143
sVPHV
p6145
I6144
sVTGN
p6146
I6145
sVLVQ
p6147
I6146
sVVQF
p6148
I6147
sVMIE
p6149
I6148
sVMTG
p6150
I6149
sVLQY
p6151
I6150
sVQYN
p6152
I6151
sVYND
p6153
I6152
sVYGC
p6154
I6153
sVGCY
p6155
I6154
sVCYC
p6156
I6155
sVCGI
p6157
I6156
sVSHW
p6158
I6157
sVHWP
p6159
I6158
sVWPV
p6160
I6159
sVDQT
p6161
I6160
sVTDW
p6162
I6161
sVDWC
p6163
I6162
sVWCC
p6164
I6163
sVCCH
p6165
I6164
sVCHA
p6166
I6165
sVAHD
p6167
I6166
sVHDC
p6168
I6167
sVDCC
p6169
I6168
sVCCY
p6170
I6169
sVCEP
p6171
I6170
sVPKL
p6172
I6171
sVIFC
p6173
I6172
sVFCA
p6174
I6173
sVRTT
p6175
I6174
sVCQR
p6176
I6175
sVECD
p6177
I6176
sVALC
p6178
I6177
sVLCF
p6179
I6178
sVRKY
p6180
I6179
sVYAH
p6181
I6180
sVAHY
p6182
I6181
sVHYP
p6183
I6182
sVCTG
p6184
I6183
sVPC=
p6185
I6184
sVVRH
p6186
I6185
sVRHF
p6187
I6186
sVYFW
p6188
I6187
sVAPM
p6189
I6188
sVPMS
p6190
I6189
sVQKW
p6191
I6190
sVFHE
p6192
I6191
sVCIM
p6193
I6192
sVEWQ
p6194
I6193
sVGMT
p6195
I6194
sVMPK
p6196
I6195
sVFID
p6197
I6196
sVCFP
p6198
I6197
sVWVI
p6199
I6198
sVVIY
p6200
I6199
sVIYK
p6201
I6200
sVQD=
p6202
I6201
sV-MI
p6203
I6202
sVHCY
p6204
I6203
sVCYM
p6205
I6204
sVVKQ
p6206
I6205
sVSTD
p6207
I6206
sVYDN
p6208
I6207
sVTDI
p6209
I6208
sVDVF
p6210
I6209
sVQTW
p6211
I6210
sVTWH
p6212
I6211
sVWHD
p6213
I6212
sVHDE
p6214
I6213
sVPMK
p6215
I6214
sVIWT
p6216
I6215
sVFHN
p6217
I6216
sVAHN
p6218
I6217
sVHNM
p6219
I6218
sVTPN
p6220
I6219
sVDNG
p6221
I6220
sVIHA
p6222
I6221
sVHAE
p6223
I6222
sVPMH
p6224
I6223
sVHAC
p6225
I6224
sVACP
p6226
I6225
sVCPL
p6227
I6226
sVSWT
p6228
I6227
sVWTL
p6229
I6228
sVNQY
p6230
I6229
sVQYD
p6231
I6230
sVGHV
p6232
I6231
sVVMT
p6233
I6232
sVTHF
p6234
I6233
sVKIG
p6235
I6234
sVSQV
p6236
I6235
sVWLN
p6237
I6236
sVVAY
p6238
I6237
sVMDW
p6239
I6238
sVDWF
p6240
I6239
sVWFI
p6241
I6240
sVCYA
p6242
I6241
sVTFN
p6243
I6242
sVYPI
p6244
I6243
sVKDT
p6245
I6244
sVATY
p6246
I6245
sVYVQ
p6247
I6246
sVVYW
p6248
I6247
sVYWA
p6249
I6248
sVVNR
p6250
I6249
sVMIR
p6251
I6250
sVMSA
p6252
I6251
sVKCF
p6253
I6252
sVCFE
p6254
I6253
sVDTK
p6255
I6254
sVKPH
p6256
I6255
sVPHQ
p6257
I6256
sVKMS
p6258
I6257
sVHQH
p6259
I6258
sVGFH
p6260
I6259
sVTEP
p6261
I6260
sVRYY
p6262
I6261
sVRQI
p6263
I6262
sVQIV
p6264
I6263
sVGCQ
p6265
I6264
sVLNE
p6266
I6265
sVIGC
p6267
I6266
sVMYT
p6268
I6267
sVKNE
p6269
I6268
sVNEY
p6270
I6269
sVEYS
p6271
I6270
sVKHI
p6272
I6271
sVQKM
p6273
I6272
sVRPT
p6274
I6273
sVITC
p6275
I6274
sVDCH
p6276
I6275
sVCHL
p6277
I6276
sVSKW
p6278
I6277
sVKWV
p6279
I6278
sVWVD
p6280
I6279
sVVDY
p6281
I6280
sVCDN
p6282
I6281
sVFND
p6283
I6282
sVLYN
p6284
I6283
sVNDG
p6285
I6284
sVLMK
p6286
I6285
sVYMS
p6287
I6286
sVMSE
p6288
I6287
sVITP
p6289
I6288
sVRTW
p6290
I6289
sVWFR
p6291
I6290
sVNGS
p6292
I6291
sVVQI
p6293
I6292
sVQIN
p6294
I6293
sVFFQ
p6295
I6294
sVEYG
p6296
I6295
sVGCC
p6297
I6296
sVCCK
p6298
I6297
sVYAR
p6299
I6298
sVAS=
p6300
I6299
sVTSK
p6301
I6300
sVMFF
p6302
I6301
sVDQG
p6303
I6302
sVYDH
p6304
I6303
sVNEG
p6305
I6304
sVKLW
p6306
I6305
sVWKH
p6307
I6306
sVYEN
p6308
I6307
sVNK=
p6309
I6308
sVPYT
p6310
I6309
sVYFP
p6311
I6310
sVGRC
p6312
I6311
sVQGQ
p6313
I6312
sVETW
p6314
I6313
sVTWQ
p6315
I6314
sVWQE
p6316
I6315
sVCLY
p6317
I6316
sVQSN
p6318
I6317
sVHLG
p6319
I6318
sVGKD
p6320
I6319
sVDQQ
p6321
I6320
sVRCK
p6322
I6321
sVLIY
p6323
I6322
sVYEA
p6324
I6323
sVDYN
p6325
I6324
sVYNL
p6326
I6325
sVPGC
p6327
I6326
sVYIG
p6328
I6327
sVHTV
p6329
I6328
sVHFA
p6330
I6329
sVYYR
p6331
I6330
sVIQL
p6332
I6331
sVEIM
p6333
I6332
sVKAH
p6334
I6333
sVVKN
p6335
I6334
sVTVY
p6336
I6335
sVNPQ
p6337
I6336
sVPQY
p6338
I6337
sVGCT
p6339
I6338
sVCTN
p6340
I6339
sVTNP
p6341
I6340
sVIRD
p6342
I6341
sVDKT
p6343
I6342
sVTWN
p6344
I6343
sVWNA
p6345
I6344
sVMPY
p6346
I6345
sVGND
p6347
I6346
sVDYD
p6348
I6347
sVRDY
p6349
I6348
sVYIH
p6350
I6349
sVEQC
p6351
I6350
sVCGC
p6352
I6351
sVRIY
p6353
I6352
sVACY
p6354
I6353
sVYAN
p6355
I6354
sVLGW
p6356
I6355
sVDRM
p6357
I6356
sVRMC
p6358
I6357
sVDLW
p6359
I6358
sVRWQ
p6360
I6359
sVWQK
p6361
I6360
sVQA=
p6362
I6361
sVAPR
p6363
I6362
sVSCG
p6364
I6363
sVTAW
p6365
I6364
sVWSQ
p6366
I6365
sVPSW
p6367
I6366
sVPHE
p6368
I6367
sVPGE
p6369
I6368
sVRHW
p6370
I6369
sVHWL
p6371
I6370
sVQFQ
p6372
I6371
sVTCH
p6373
I6372
sVCHH
p6374
I6373
sVHSA
p6375
I6374
sVKCQ
p6376
I6375
sVCQQ
p6377
I6376
sVMKP
p6378
I6377
sVKAQ
p6379
I6378
sVEPA
p6380
I6379
sVQWC
p6381
I6380
sVWCL
p6382
I6381
sVPIG
p6383
I6382
sVPTK
p6384
I6383
sVHKV
p6385
I6384
sVNVN
p6386
I6385
sVCNA
p6387
I6386
sVAEW
p6388
I6387
sVQMR
p6389
I6388
sVKNA
p6390
I6389
sVHSI
p6391
I6390
sVTPY
p6392
I6391
sVGQM
p6393
I6392
sVLWE
p6394
I6393
sVLFW
p6395
I6394
sVFWR
p6396
I6395
sVNPW
p6397
I6396
sVPWY
p6398
I6397
sVWYF
p6399
I6398
sVFKH
p6400
I6399
sVHSD
p6401
I6400
sVKQW
p6402
I6401
sVQWI
p6403
I6402
sVWIF
p6404
I6403
sVFFW
p6405
I6404
sVHAK
p6406
I6405
sVHKP
p6407
I6406
sVGS=
p6408
I6407
sVPYS
p6409
I6408
sVGLH
p6410
I6409
sVANG
p6411
I6410
sVVHT
p6412
I6411
sVNGQ
p6413
I6412
sVQCN
p6414
I6413
sVQRY
p6415
I6414
sVTCV
p6416
I6415
sVCVD
p6417
I6416
sVRWR
p6418
I6417
sVWRY
p6419
I6418
sVASW
p6420
I6419
sVPCV
p6421
I6420
sVCVM
p6422
I6421
sVVHG
p6423
I6422
sVGFM
p6424
I6423
sVCPV
p6425
I6424
sVFMV
p6426
I6425
sVVGC
p6427
I6426
sVAKM
p6428
I6427
sVSHN
p6429
I6428
sVLMW
p6430
I6429
sVMWR
p6431
I6430
sVWRV
p6432
I6431
sVPRV
p6433
I6432
sVHEI
p6434
I6433
sVRQD
p6435
I6434
sVAMT
p6436
I6435
sVNEI
p6437
I6436
sVILW
p6438
I6437
sVLWG
p6439
I6438
sVWGH
p6440
I6439
sVPRC
p6441
I6440
sVNKF
p6442
I6441
sVFCY
p6443
I6442
sVRHD
p6444
I6443
sVFDR
p6445
I6444
sVPYR
p6446
I6445
sVYRR
p6447
I6446
sVEI=
p6448
I6447
sVMPA
p6449
I6448
sVAMI
p6450
I6449
sVTIT
p6451
I6450
sVVIK
p6452
I6451
sVIKC
p6453
I6452
sVNHK
p6454
I6453
sVHKN
p6455
I6454
sVKNN
p6456
I6455
sVGCA
p6457
I6456
sVCLW
p6458
I6457
sVWVF
p6459
I6458
sVNCQ
p6460
I6459
sVCQP
p6461
I6460
sVHFD
p6462
I6461
sVFIQ
p6463
I6462
sVIRN
p6464
I6463
sVIRC
p6465
I6464
sVRCC
p6466
I6465
sVECT
p6467
I6466
sVCTR
p6468
I6467
sVWIR
p6469
I6468
sVVHV
p6470
I6469
sVHVN
p6471
I6470
sVNHG
p6472
I6471
sVLTW
p6473
I6472
sVTWE
p6474
I6473
sVYST
p6475
I6474
sVTNR
p6476
I6475
sVTMI
p6477
I6476
sVCSS
p6478
I6477
sVDYE
p6479
I6478
sVDQY
p6480
I6479
sVQYE
p6481
I6480
sVCFS
p6482
I6481
sVKAY
p6483
I6482
sVPQI
p6484
I6483
sVRCT
p6485
I6484
sVCTW
p6486
I6485
sVTWT
p6487
I6486
sVQKG
p6488
I6487
sVNGY
p6489
I6488
sVFCN
p6490
I6489
sVCNH
p6491
I6490
sVHKH
p6492
I6491
sVKHQ
p6493
I6492
sVHQP
p6494
I6493
sVQPG
p6495
I6494
sVFHA
p6496
I6495
sVNIR
p6497
I6496
sVSCF
p6498
I6497
sVWTW
p6499
I6498
sVTWK
p6500
I6499
sVPNC
p6501
I6500
sVEIT
p6502
I6501
sVANR
p6503
I6502
sVGQW
p6504
I6503
sVCAY
p6505
I6504
sVAYN
p6506
I6505
sVCET
p6507
I6506
sVNSP
p6508
I6507
sVGVC
p6509
I6508
sVCHK
p6510
I6509
sVYKK
p6511
I6510
sVQFR
p6512
I6511
sVRYE
p6513
I6512
sVYES
p6514
I6513
sVREY
p6515
I6514
sVKWE
p6516
I6515
sVWEF
p6517
I6516
sVMMT
p6518
I6517
sVACT
p6519
I6518
sVYCC
p6520
I6519
sVLNY
p6521
I6520
sVKRE
p6522
I6521
sVWTE
p6523
I6522
sVHNF
p6524
I6523
sVQIH
p6525
I6524
sVIHP
p6526
I6525
sVHGN
p6527
I6526
sVNQK
p6528
I6527
sVYQV
p6529
I6528
sVCVH
p6530
I6529
sVVTH
p6531
I6530
sVHGK
p6532
I6531
sVNAR
p6533
I6532
sVWSY
p6534
I6533
sVWEI
p6535
I6534
sVKMD
p6536
I6535
sVDQP
p6537
I6536
sVPFY
p6538
I6537
sVSCW
p6539
I6538
sVCWA
p6540
I6539
sVCQL
p6541
I6540
sVMYQ
p6542
I6541
sVTYQ
p6543
I6542
sVQVE
p6544
I6543
sVDS=
p6545
I6544
sV-MQ
p6546
I6545
sVALW
p6547
I6546
sVCRG
p6548
I6547
sVWLW
p6549
I6548
sVWPN
p6550
I6549
sVNNQ
p6551
I6550
sVECS
p6552
I6551
sVCKT
p6553
I6552
sVYRE
p6554
I6553
sVDQH
p6555
I6554
sVQHG
p6556
I6555
sVRYP
p6557
I6556
sVISW
p6558
I6557
sVSWD
p6559
I6558
sVWDS
p6560
I6559
sVMIS
p6561
I6560
sVFCE
p6562
I6561
sVIND
p6563
I6562
sVCTA
p6564
I6563
sVRTE
p6565
I6564
sVELN
p6566
I6565
sVWEY
p6567
I6566
sVTCA
p6568
I6567
sVMTK
p6569
I6568
sVVRI
p6570
I6569
sVKWY
p6571
I6570
sVAGH
p6572
I6571
sVYQY
p6573
I6572
sVYGT
p6574
I6573
sVIHW
p6575
I6574
sVYWQ
p6576
I6575
sVWQL
p6577
I6576
sVCAN
p6578
I6577
sVYPC
p6579
I6578
sVEEW
p6580
I6579
sVVNK
p6581
I6580
sVANV
p6582
I6581
sVFHV
p6583
I6582
sVPDM
p6584
I6583
sVDMQ
p6585
I6584
sVMQP
p6586
I6585
sVLWC
p6587
I6586
sVWCT
p6588
I6587
sVPVC
p6589
I6588
sVTMF
p6590
I6589
sVLIM
p6591
I6590
sVGDY
p6592
I6591
sVDRK
p6593
I6592
sVHCV
p6594
I6593
sVSCT
p6595
I6594
sVQIM
p6596
I6595
sVIMW
p6597
I6596
sVMWF
p6598
I6597
sVCAK
p6599
I6598
sVEHC
p6600
I6599
sVCER
p6601
I6600
sVQVI
p6602
I6601
sVCRT
p6603
I6602
sVCKF
p6604
I6603
sVCYS
p6605
I6604
sVKCI
p6606
I6605
sVCIH
p6607
I6606
sVDYT
p6608
I6607
sVQTM
p6609
I6608
sVTML
p6610
I6609
sVLDC
p6611
I6610
sVCWH
p6612
I6611
sVWHG
p6613
I6612
sVLSM
p6614
I6613
sVSCM
p6615
I6614
sVEVC
p6616
I6615
sVDNT
p6617
I6616
sVSQY
p6618
I6617
sVDNQ
p6619
I6618
sVVMA
p6620
I6619
sVWAC
p6621
I6620
sVDTH
p6622
I6621
sVHPQ
p6623
I6622
sVLYH
p6624
I6623
sVYHL
p6625
I6624
sVYHK
p6626
I6625
sVYNW
p6627
I6626
sVSVW
p6628
I6627
sVWYQ
p6629
I6628
sVYQE
p6630
I6629
sVSWN
p6631
I6630
sVSMF
p6632
I6631
sVMFD
p6633
I6632
sVAIW
p6634
I6633
sVERY
p6635
I6634
sVIQH
p6636
I6635
sVQHD
p6637
I6636
sVIQF
p6638
I6637
sVQFN
p6639
I6638
sVFNV
p6640
I6639
sVICM
p6641
I6640
sVMAF
p6642
I6641
sVDRP
p6643
I6642
sVEPR
p6644
I6643
sVSLY
p6645
I6644
sVGEH
p6646
I6645
sVQTQ
p6647
I6646
sVFML
p6648
I6647
sVGV=
p6649
I6648
sVACL
p6650
I6649
sVPRI
p6651
I6650
sVRWD
p6652
I6651
sVWDP
p6653
I6652
sVGDK
p6654
I6653
sVPHM
p6655
I6654
sVHMQ
p6656
I6655
sVRSC
p6657
I6656
sVCAM
p6658
I6657
sVHMY
p6659
I6658
sVYAQ
p6660
I6659
sVYEC
p6661
I6660
sVECI
p6662
I6661
sVCCS
p6663
I6662
sVYWW
p6664
I6663
sVWWN
p6665
I6664
sVWNG
p6666
I6665
sVRWM
p6667
I6666
sVWMI
p6668
I6667
sVMID
p6669
I6668
sVYRC
p6670
I6669
sVMNC
p6671
I6670
sVRTC
p6672
I6671
sVTCP
p6673
I6672
sVCPK
p6674
I6673
sVSV=
p6675
I6674
sVRMN
p6676
I6675
sVMNP
p6677
I6676
sVNNG
p6678
I6677
sVQCL
p6679
I6678
sVTWG
p6680
I6679
sVWGK
p6681
I6680
sVNVW
p6682
I6681
sVWRF
p6683
I6682
sVFPY
p6684
I6683
sVGMP
p6685
I6684
sVGQY
p6686
I6685
sVVWK
p6687
I6686
sVWKI
p6688
I6687
sVICP
p6689
I6688
sVGYA
p6690
I6689
sVLYV
p6691
I6690
sVFYY
p6692
I6691
sVNVI
p6693
I6692
sVPWT
p6694
I6693
sVTDC
p6695
I6694
sVGHT
p6696
I6695
sVIHD
p6697
I6696
sVWKG
p6698
I6697
sVDFY
p6699
I6698
sVTQI
p6700
I6699
sVYNK
p6701
I6700
sVNNC
p6702
I6701
sVINC
p6703
I6702
sVHEH
p6704
I6703
sVEHK
p6705
I6704
sVTFW
p6706
I6705
sVFWA
p6707
I6706
sVMEA
p6708
I6707
sVYVL
p6709
I6708
sVWFY
p6710
I6709
sVFYG
p6711
I6710
sVQMM
p6712
I6711
sVLCW
p6713
I6712
sVCWK
p6714
I6713
sVWKF
p6715
I6714
sVWAN
p6716
I6715
sVNWV
p6717
I6716
sVNEH
p6718
I6717
sVQHW
p6719
I6718
sVWLA
p6720
I6719
sVTDH
p6721
I6720
sVPTQ
p6722
I6721
sVTQP
p6723
I6722
sVHII
p6724
I6723
sVFNC
p6725
I6724
sVCSI
p6726
I6725
sVVPN
p6727
I6726
sVWWK
p6728
I6727
sVWKD
p6729
I6728
sVGKE
p6730
I6729
sVHHA
p6731
I6730
sVQFY
p6732
I6731
sVYIC
p6733
I6732
sVCKM
p6734
I6733
sVNNE
p6735
I6734
sVDPI
p6736
I6735
sVVQG
p6737
I6736
sVHFT
p6738
I6737
sVTRN
p6739
I6738
sVNIK
p6740
I6739
sVTAH
p6741
I6740
sVRNC
p6742
I6741
sVFNT
p6743
I6742
sVPHL
p6744
I6743
sVYQI
p6745
I6744
sVCMN
p6746
I6745
sVMNE
p6747
I6746
sVGWS
p6748
I6747
sVSPW
p6749
I6748
sVISH
p6750
I6749
sVHVW
p6751
I6750
sVVWQ
p6752
I6751
sVWQS
p6753
I6752
sVGQN
p6754
I6753
sVVHN
p6755
I6754
sVHGW
p6756
I6755
sVFGC
p6757
I6756
sVGCF
p6758
I6757
sVCFC
p6759
I6758
sVKTM
p6760
I6759
sVMKD
p6761
I6760
sVIEM
p6762
I6761
sVMSS
p6763
I6762
sVKPM
p6764
I6763
sVFMK
p6765
I6764
sVYSR
p6766
I6765
sVRNF
p6767
I6766
sVNCM
p6768
I6767
sVCML
p6769
I6768
sVIYS
p6770
I6769
sVMWE
p6771
I6770
sVRGM
p6772
I6771
sVNHE
p6773
I6772
sVHEM
p6774
I6773
sVYDY
p6775
I6774
sVYSC
p6776
I6775
sVCWR
p6777
I6776
sVNTQ
p6778
I6777
sVCTP
p6779
I6778
sVVHD
p6780
I6779
sVWED
p6781
I6780
sVSWS
p6782
I6781
sVWSH
p6783
I6782
sVLM=
p6784
I6783
sVYKQ
p6785
I6784
sVNKD
p6786
I6785
sVRIE
p6787
I6786
sVSEF
p6788
I6787
sVEFI
p6789
I6788
sVTLD
p6790
I6789
sVRWA
p6791
I6790
sVNEM
p6792
I6791
sVEFQ
p6793
I6792
sVLV=
p6794
I6793
sVPTH
p6795
I6794
sVTHV
p6796
I6795
sVKHM
p6797
I6796
sVYDF
p6798
I6797
sVEMT
p6799
I6798
sVGYV
p6800
I6799
sVTRW
p6801
I6800
sVRWY
p6802
I6801
sVWMH
p6803
I6802
sVMHY
p6804
I6803
sVIWS
p6805
I6804
sVWSV
p6806
I6805
sVEHE
p6807
I6806
sVWKQ
p6808
I6807
sVRMA
p6809
I6808
sVSPM
p6810
I6809
sVPMF
p6811
I6810
sVPHW
p6812
I6811
sVWYH
p6813
I6812
sVYHF
p6814
I6813
sVCFW
p6815
I6814
sVFWK
p6816
I6815
sVWKV
p6817
I6816
sVWDD
p6818
I6817
sVQVR
p6819
I6818
sVDRW
p6820
I6819
sVYHP
p6821
I6820
sVQND
p6822
I6821
sVIWN
p6823
I6822
sVKVC
p6824
I6823
sVYYC
p6825
I6824
sVKCM
p6826
I6825
sVCMV
p6827
I6826
sVKEW
p6828
I6827
sVWVT
p6829
I6828
sVNMK
p6830
I6829
sVAHI
p6831
I6830
sVPWG
p6832
I6831
sVWGA
p6833
I6832
sVVKG
p6834
I6833
sVGTN
p6835
I6834
sVYYK
p6836
I6835
sVFRS
p6837
I6836
sVSWG
p6838
I6837
sVWGR
p6839
I6838
sVQMP
p6840
I6839
sVMPS
p6841
I6840
sVEHF
p6842
I6841
sVHFM
p6843
I6842
sVAWH
p6844
I6843
sVWHS
p6845
I6844
sVKMI
p6846
I6845
sVIPH
p6847
I6846
sVPID
p6848
I6847
sVNTH
p6849
I6848
sVTHA
p6850
I6849
sVTHN
p6851
I6850
sVAYD
p6852
I6851
sVGEC
p6853
I6852
sVECQ
p6854
I6853
sVRYK
p6855
I6854
sVLWH
p6856
I6855
sVNYC
p6857
I6856
sVYCH
p6858
I6857
sVVYD
p6859
I6858
sVLW=
p6860
I6859
sVFSQ
p6861
I6860
sVQVD
p6862
I6861
sVNPH
p6863
I6862
sVPHC
p6864
I6863
sV-MM
p6865
I6864
sVYCD
p6866
I6865
sVRYQ
p6867
I6866
sVYQR
p6868
I6867
sVITW
p6869
I6868
sVWQT
p6870
I6869
sVNFC
p6871
I6870
sVKHN
p6872
I6871
sVHNC
p6873
I6872
sVWPG
p6874
I6873
sVKFP
p6875
I6874
sVYPA
p6876
I6875
sVHMD
p6877
I6876
sVLHH
p6878
I6877
sVHNK
p6879
I6878
sVNKP
p6880
I6879
sVKHH
p6881
I6880
sVHCF
p6882
I6881
sVCDT
p6883
I6882
sVNI=
p6884
I6883
sVAWD
p6885
I6884
sVTCC
p6886
I6885
sVCCT
p6887
I6886
sVCVI
p6888
I6887
sVGHA
p6889
I6888
sVIVW
p6890
I6889
sVWRQ
p6891
I6890
sVSDC
p6892
I6891
sVTIY
p6893
I6892
sVFYI
p6894
I6893
sVHSH
p6895
I6894
sVFFN
p6896
I6895
sVFNH
p6897
I6896
sVIIC
p6898
I6897
sVICW
p6899
I6898
sVPIC
p6900
I6899
sVICR
p6901
I6900
sVCWI
p6902
I6901
sVWIH
p6903
I6902
sVFTW
p6904
I6903
sVWLG
p6905
I6904
sVAFQ
p6906
I6905
sVCTQ
p6907
I6906
sVACH
p6908
I6907
sVTHY
p6909
I6908
sVGYW
p6910
I6909
sVNIW
p6911
I6910
sVCVW
p6912
I6911
sVFGW
p6913
I6912
sVGWR
p6914
I6913
sVRQP
p6915
I6914
sVICQ
p6916
I6915
sVCQI
p6917
I6916
sVMYC
p6918
I6917
sVYCR
p6919
I6918
sVEQV
p6920
I6919
sVNAP
p6921
I6920
sVKTH
p6922
I6921
sVFPD
p6923
I6922
sVCIN
p6924
I6923
sVPCS
p6925
I6924
sVFQN
p6926
I6925
sVCLC
p6927
I6926
sVHKD
p6928
I6927
sVMVR
p6929
I6928
sVCEW
p6930
I6929
sVCTT
p6931
I6930
sVVCC
p6932
I6931
sVCCC
p6933
I6932
sVCVG
p6934
I6933
sVEV=
p6935
I6934
sVMRI
p6936
I6935
sVWDV
p6937
I6936
sVWRH
p6938
I6937
sVDCA
p6939
I6938
sVCAD
p6940
I6939
sVMRD
p6941
I6940
sVDAM
p6942
I6941
sVRNW
p6943
I6942
sVNWY
p6944
I6943
sVYKA
p6945
I6944
sVFEF
p6946
I6945
sVHQD
p6947
I6946
sVYTH
p6948
I6947
sVTHE
p6949
I6948
sVMPD
p6950
I6949
sVDYK
p6951
I6950
sVPKW
p6952
I6951
sVSQM
p6953
I6952
sVMLH
p6954
I6953
sVLHY
p6955
I6954
sVRL=
p6956
I6955
sVSKM
p6957
I6956
sVNQN
p6958
I6957
sVRPW
p6959
I6958
sVPWS
p6960
I6959
sVRQV
p6961
I6960
sVECY
p6962
I6961
sVCYI
p6963
I6962
sVHHG
p6964
I6963
sVGDN
p6965
I6964
sVMYW
p6966
I6965
sVLMN
p6967
I6966
sVYYV
p6968
I6967
sVNKW
p6969
I6968
sVMRF
p6970
I6969
sVQHC
p6971
I6970
sVKDA
p6972
I6971
sVQHP
p6973
I6972
sVVCP
p6974
I6973
sVSTH
p6975
I6974
sVRCM
p6976
I6975
sVCMS
p6977
I6976
sVDTP
p6978
I6977
sVNPM
p6979
I6978
sVFNM
p6980
I6979
sVTKN
p6981
I6980
sVMLM
p6982
I6981
sVPRM
p6983
I6982
sVTPH
p6984
I6983
sVPHI
p6985
I6984
sVQTN
p6986
I6985
sVQIP
p6987
I6986
sVQYT
p6988
I6987
sVSMY
p6989
I6988
sVKHD
p6990
I6989
sVKNY
p6991
I6990
sVSMT
p6992
I6991
sVGN=
p6993
I6992
sVMSW
p6994
I6993
sVHPR
p6995
I6994
sVRDN
p6996
I6995
sVNCC
p6997
I6996
sVCCI
p6998
I6997
sVSYC
p6999
I6998
sVYCP
p7000
I6999
sVCPT
p7001
I7000
sVPNM
p7002
I7001
sVNMI
p7003
I7002
sVTHD
p7004
I7003
sVCQE
p7005
I7004
sVPCK
p7006
I7005
sVDCQ
p7007
I7006
sVCQD
p7008
I7007
sVANQ
p7009
I7008
sVWIQ
p7010
I7009
sVEFW
p7011
I7010
sVKIH
p7012
I7011
sVPYA
p7013
I7012
sVYAM
p7014
I7013
sVMFK
p7015
I7014
sVNGM
p7016
I7015
sVMQF
p7017
I7016
sVSTW
p7018
I7017
sVTWD
p7019
I7018
sVWDN
p7020
I7019
sVNCA
p7021
I7020
sVSGW
p7022
I7021
sVWMN
p7023
I7022
sVKCH
p7024
I7023
sVIIW
p7025
I7024
sVWKT
p7026
I7025
sVWYS
p7027
I7026
sVIIP
p7028
I7027
sVQHH
p7029
I7028
sVTEY
p7030
I7029
sVDL=
p7031
I7030
sVMRG
p7032
I7031
sVYAC
p7033
I7032
sVHPE
p7034
I7033
sVFYH
p7035
I7034
sVVYR
p7036
I7035
sVYDR
p7037
I7036
sVWWC
p7038
I7037
sVMLY
p7039
I7038
sVFL=
p7040
I7039
sVQSR
p7041
I7040
sVAPK
p7042
I7041
sVQGY
p7043
I7042
sVWFD
p7044
I7043
sVIWI
p7045
I7044
sVAHW
p7046
I7045
sVHWI
p7047
I7046
sVCYL
p7048
I7047
sVYKW
p7049
I7048
sVKWK
p7050
I7049
sVKYW
p7051
I7050
sVVCF
p7052
I7051
sVPMN
p7053
I7052
sVNNI
p7054
I7053
sVFFC
p7055
I7054
sVFCC
p7056
I7055
sVCCF
p7057
I7056
sVDCR
p7058
I7057
sVWRE
p7059
I7058
sVYLY
p7060
I7059
sVYL=
p7061
I7060
sVRAW
p7062
I7061
sVNPC
p7063
I7062
sVPCQ
p7064
I7063
sVNHH
p7065
I7064
sVHCK
p7066
I7065
sVTPM
p7067
I7066
sVVCQ
p7068
I7067
sVSCH
p7069
I7068
sVCHF
p7070
I7069
sVKCT
p7071
I7070
sVGHK
p7072
I7071
sVHKL
p7073
I7072
sVGDH
p7074
I7073
sVNYN
p7075
I7074
sVVHW
p7076
I7075
sVHWQ
p7077
I7076
sVWQF
p7078
I7077
sVTRF
p7079
I7078
sVTCD
p7080
I7079
sVCDL
p7081
I7080
sVWAG
p7082
I7081
sVCFG
p7083
I7082
sVVI=
p7084
I7083
sVSWY
p7085
I7084
sVWYD
p7086
I7085
sVWSR
p7087
I7086
sVMPW
p7088
I7087
sVVMM
p7089
I7088
sVMMC
p7090
I7089
sVMPM
p7091
I7090
sVCTH
p7092
I7091
sVTQM
p7093
I7092
sVTHI
p7094
I7093
sVLHC
p7095
I7094
sVHC=
p7096
I7095
sVHMF
p7097
I7096
sVTQN
p7098
I7097
sVQYV
p7099
I7098
sVYPF
p7100
I7099
sVYNN
p7101
I7100
sVDNM
p7102
I7101
sVPWE
p7103
I7102
sVDKW
p7104
I7103
sVKWD
p7105
I7104
sVWDK
p7106
I7105
sVDKM
p7107
I7106
sVRRF
p7108
I7107
sVLWF
p7109
I7108
sVWFL
p7110
I7109
sVFLW
p7111
I7110
sVKQC
p7112
I7111
sVQER
p7113
I7112
sVHYE
p7114
I7113
sVVIN
p7115
I7114
sVTAK
p7116
I7115
sVCMM
p7117
I7116
sVMMY
p7118
I7117
sVMYY
p7119
I7118
sVAFW
p7120
I7119
sVCMI
p7121
I7120
sVICE
p7122
I7121
sVNWC
p7123
I7122
sVWCE
p7124
I7123
sVWSG
p7125
I7124
sVYKY
p7126
I7125
sVRS=
p7127
I7126
sVAHM
p7128
I7127
sVHMP
p7129
I7128
sVVRC
p7130
I7129
sVFKY
p7131
I7130
sVYFM
p7132
I7131
sVRYN
p7133
I7132
sVIAH
p7134
I7133
sVHLP
p7135
I7134
sVAMR
p7136
I7135
sVWAD
p7137
I7136
sVRYD
p7138
I7137
sVKWF
p7139
I7138
sVPWF
p7140
I7139
sVWFQ
p7141
I7140
sVFWQ
p7142
I7141
sVWQH
p7143
I7142
sVRFQ
p7144
I7143
sVHHV
p7145
I7144
sVHVQ
p7146
I7145
sVNMQ
p7147
I7146
sVQMS
p7148
I7147
sVMNF
p7149
I7148
sVDYF
p7150
I7149
sVCCW
p7151
I7150
sVWTC
p7152
I7151
sVQIY
p7153
I7152
sVIYC
p7154
I7153
sVIGI
p7155
I7154
sVMSY
p7156
I7155
sVRFM
p7157
I7156
sVCIQ
p7158
I7157
sVYNG
p7159
I7158
sVFTM
p7160
I7159
sVTMY
p7161
I7160
sVMCF
p7162
I7161
sVCMF
p7163
I7162
sVNVR
p7164
I7163
sVRMH
p7165
I7164
sVMHV
p7166
I7165
sVIEC
p7167
I7166
sVECF
p7168
I7167
sVVTW
p7169
I7168
sVTWA
p7170
I7169
sVWAQ
p7171
I7170
sVHLW
p7172
I7171
sVLWQ
p7173
I7172
sVPNQ
p7174
I7173
sVHFP
p7175
I7174
sVKYD
p7176
I7175
sVCHD
p7177
I7176
sVWSP
p7178
I7177
sVDNH
p7179
I7178
sVRFI
p7180
I7179
sVEE=
p7181
I7180
sVVHF
p7182
I7181
sVDWT
p7183
I7182
sVFCV
p7184
I7183
sVHKC
p7185
I7184
sVPPM
p7186
I7185
sVPWW
p7187
I7186
sVWWY
p7188
I7187
sVFAH
p7189
I7188
sVWNC
p7190
I7189
sVHMN
p7191
I7190
sVYMM
p7192
I7191
sVINY
p7193
I7192
sVDKH
p7194
I7193
sVMED
p7195
I7194
sVFIH
p7196
I7195
sVIHN
p7197
I7196
sVEPM
p7198
I7197
sVMNS
p7199
I7198
sVFTD
p7200
I7199
sVDGC
p7201
I7200
sVIWW
p7202
I7201
sVVRW
p7203
I7202
sVQHM
p7204
I7203
sVHMT
p7205
I7204
sVNDM
p7206
I7205
sVDCD
p7207
I7206
sVDPP
p7208
I7207
sVMAD
p7209
I7208
sVNGP
p7210
I7209
sVDQK
p7211
I7210
sVMKN
p7212
I7211
sVWGE
p7213
I7212
sVFRH
p7214
I7213
sVSE=
p7215
I7214
sVMGE
p7216
I7215
sVPTM
p7217
I7216
sVQCA
p7218
I7217
sVHGY
p7219
I7218
sVCRH
p7220
I7219
sVKQY
p7221
I7220
sVWTS
p7222
I7221
sVMTY
p7223
I7222
sVQEH
p7224
I7223
sVYRY
p7225
I7224
sVCHQ
p7226
I7225
sVMRC
p7227
I7226
sVHY=
p7228
I7227
sVSRW
p7229
I7228
sVMCQ
p7230
I7229
sVCGQ
p7231
I7230
sVLS=
p7232
I7231
sVGAW
p7233
I7232
sVWDF
p7234
I7233
sVNEW
p7235
I7234
sVTNK
p7236
I7235
sVRCP
p7237
I7236
sVAYH
p7238
I7237
sVYHR
p7239
I7238
sVNSW
p7240
I7239
sVWHH
p7241
I7240
sVFNY
p7242
I7241
sVMCY
p7243
I7242
sVPMI
p7244
I7243
sVEHQ
p7245
I7244
sVYMN
p7246
I7245
sVNVY
p7247
I7246
sVDWY
p7248
I7247
sVFCP
p7249
I7248
sVHPH
p7250
I7249
sVMCI
p7251
I7250
sVPMY
p7252
I7251
sVVQW
p7253
I7252
sVDHK
p7254
I7253
sVHKW
p7255
I7254
sVNHM
p7256
I7255
sVEYM
p7257
I7256
sVCVY
p7258
I7257
sVYKM
p7259
I7258
sVTCW
p7260
I7259
sVCWD
p7261
I7260
sVWDA
p7262
I7261
sVHDD
p7263
I7262
sVDV=
p7264
I7263
sVPCC
p7265
I7264
sVCYY
p7266
I7265
sVCQH
p7267
I7266
sVQCD
p7268
I7267
sVFTH
p7269
I7268
sVGRW
p7270
I7269
sVRWF
p7271
I7270
sVWFW
p7272
I7271
sVWES
p7273
I7272
sVQHF
p7274
I7273
sVTHQ
p7275
I7274
sVKYQ
p7276
I7275
sVMYP
p7277
I7276
sVLMH
p7278
I7277
sVYPR
p7279
I7278
sVREH
p7280
I7279
sVFQY
p7281
I7280
sVYRN
p7282
I7281
sVYHW
p7283
I7282
sVHWH
p7284
I7283
sVWHP
p7285
I7284
sVMDH
p7286
I7285
sVDHH
p7287
I7286
sVEYR
p7288
I7287
sVEKC
p7289
I7288
sVEYW
p7290
I7289
sVCPY
p7291
I7290
sVHDM
p7292
I7291
sVYEW
p7293
I7292
sVEWT
p7294
I7293
sVYAW
p7295
I7294
sVNTY
p7296
I7295
sVTSY
p7297
I7296
sVEPQ
p7298
I7297
sVHQ=
p7299
I7298
sVHME
p7300
I7299
sVWQP
p7301
I7300
sVCGY
p7302
I7301
sVGCP
p7303
I7302
sVQDM
p7304
I7303
sVDMI
p7305
I7304
sVHEC
p7306
I7305
sVDNW
p7307
I7306
sVPDQ
p7308
I7307
sVPKC
p7309
I7308
sVYEH
p7310
I7309
sVNAH
p7311
I7310
sVMHA
p7312
I7311
sVTQ=
p7313
I7312
sVFCT
p7314
I7313
sVCVP
p7315
I7314
sVEPW
p7316
I7315
sVPWD
p7317
I7316
sVCCL
p7318
I7317
sVMVY
p7319
I7318
sVCRQ
p7320
I7319
sVMIV
p7321
I7320
sVHAV
p7322
I7321
sVWAM
p7323
I7322
sVGL=
p7324
I7323
sVGGY
p7325
I7324
sVTMH
p7326
I7325
sVSHQ
p7327
I7326
sVQLM
p7328
I7327
sVHHK
p7329
I7328
sVDHG
p7330
I7329
sVHGA
p7331
I7330
sVIDM
p7332
I7331
sVPFW
p7333
I7332
sVFWP
p7334
I7333
sVGVH
p7335
I7334
sVRCD
p7336
I7335
sVQYC
p7337
I7336
sVYDM
p7338
I7337
sVDMN
p7339
I7338
sVCQF
p7340
I7339
sVNDQ
p7341
I7340
sVMTR
p7342
I7341
sVLY=
p7343
I7342
sVMQR
p7344
I7343
sVEWF
p7345
I7344
sVWFV
p7346
I7345
sVQFP
p7347
I7346
sVYNH
p7348
I7347
sVQNI
p7349
I7348
sVFYC
p7350
I7349
sVQTI
p7351
I7350
sVFWG
p7352
I7351
sVWGP
p7353
I7352
sVRR=
p7354
I7353
sVVMG
p7355
I7354
sVKMW
p7356
I7355
sVMWT
p7357
I7356
sVFWC
p7358
I7357
sVFWT
p7359
I7358
sVQMH
p7360
I7359
sVMHW
p7361
I7360
sVCCD
p7362
I7361
sVCRS
p7363
I7362
sVYHV
p7364
I7363
sVLL=
p7365
I7364
sVYET
p7366
I7365
sVAWV
p7367
I7366
sVQCF
p7368
I7367
sVRWS
p7369
I7368
sVFCQ
p7370
I7369
sVCQS
p7371
I7370
sVCYV
p7372
I7371
sVLCN
p7373
I7372
sVAR=
p7374
I7373
sVERW
p7375
I7374
sVAHT
p7376
I7375
sVWGL
p7377
I7376
sVDMP
p7378
I7377
sVCFK
p7379
I7378
sVQWE
p7380
I7379
sVPRR
p7381
I7380
sVMYF
p7382
I7381
sVYVM
p7383
I7382
sVVMH
p7384
I7383
sVHRG
p7385
I7384
sVYDK
p7386
I7385
sVEWW
p7387
I7386
sVWWQ
p7388
I7387
sVREW
p7389
I7388
sVEWS
p7390
I7389
sVAND
p7391
I7390
sVHFV
p7392
I7391
sVHCI
p7393
I7392
sVIYH
p7394
I7393
sVPYI
p7395
I7394
sVYWY
p7396
I7395
sVQVW
p7397
I7396
sVVWC
p7398
I7397
sVWCG
p7399
I7398
sVCTS
p7400
I7399
sVYWS
p7401
I7400
sVEYN
p7402
I7401
sVVWL
p7403
I7402
sVWYI
p7404
I7403
sVAPC
p7405
I7404
sVHCA
p7406
I7405
sVCWF
p7407
I7406
sVFKF
p7408
I7407
sVYCN
p7409
I7408
sVNDH
p7410
I7409
sVDHQ
p7411
I7410
sVMWV
p7412
I7411
sVNIA
p7413
I7412
sVNRM
p7414
I7413
sVTWR
p7415
I7414
sVWRA
p7416
I7415
sVACV
p7417
I7416
sVGWF
p7418
I7417
sVAQW
p7419
I7418
sVQEW
p7420
I7419
sVFQW
p7421
I7420
sVQWW
p7422
I7421
sVWWL
p7423
I7422
sVCCP
p7424
I7423
sVWWD
p7425
I7424
sVWDQ
p7426
I7425
sVYY=
p7427
I7426
sVCMQ
p7428
I7427
sVHQK
p7429
I7428
sVQAW
p7430
I7429
sVKMR
p7431
I7430
sVKA=
p7432
I7431
sVCKC
p7433
I7432
sVMGC
p7434
I7433
sVCA=
p7435
I7434
sVMCS
p7436
I7435
sVWHK
p7437
I7436
sVNCD
p7438
I7437
sVCQT
p7439
I7438
sVPFC
p7440
I7439
sVVWF
p7441
I7440
sVHEP
p7442
I7441
sVPT=
p7443
I7442
sVVWH
p7444
I7443
sVCTU
p7445
I7444
sVTUP
p7446
I7445
sVUPP
p7447
I7446
sVDTM
p7448
I7447
sVRV=
p7449
I7448
sVDCY
p7450
I7449
sVMNW
p7451
I7450
sVFCW
p7452
I7451
sVYLW
p7453
I7452
sVQIW
p7454
I7453
sVIWH
p7455
I7454
sVHDA
p7456
I7455
sVWRP
p7457
I7456
sVQQC
p7458
I7457
sVHGM
p7459
I7458
sVHWA
p7460
I7459
sVFMW
p7461
I7460
sVMWI
p7462
I7461
sVAD=
p7463
I7462
sVYRM
p7464
I7463
sVVYH
p7465
I7464
sVHVH
p7466
I7465
sVPG=
p7467
I7466
sVSWI
p7468
I7467
sVMEC
p7469
I7468
sVSHY
p7470
I7469
sVHYM
p7471
I7470
sVPTC
p7472
I7471
sVDY=
p7473
I7472
sVWCH
p7474
I7473
sVARW
p7475
I7474
sVWRM
p7476
I7475
sVQCY
p7477
I7476
sVPMA
p7478
I7477
sVPMM
p7479
I7478
sVCPR
p7480
I7479
sVIM=
p7481
I7480
sVWQI
p7482
I7481
sVTWC
p7483
I7482
sVKEY
p7484
I7483
sVHRW
p7485
I7484
sVWMR
p7486
I7485
sVIYY
p7487
I7486
sVCPQ
p7488
I7487
sVPFH
p7489
I7488
sVPCD
p7490
I7489
sVCDG
p7491
I7490
sVMPC
p7492
I7491
sVVQ=
p7493
I7492
sV-MW
p7494
I7493
sVMWN
p7495
I7494
sVWNM
p7496
I7495
sVWQG
p7497
I7496
sVMYR
p7498
I7497
sVHYL
p7499
I7498
sVNRH
p7500
I7499
sVRHH
p7501
I7500
sVHNV
p7502
I7501
sVKHW
p7503
I7502
sVHIF
p7504
I7503
sVSAW
p7505
I7504
sVFPW
p7506
I7505
sVWAH
p7507
I7506
sVHTH
p7508
I7507
sVYNI
p7509
I7508
sVKKW
p7510
I7509
sVKWP
p7511
I7510
sVLG=
p7512
I7511
sVEYH
p7513
I7512
sVRCN
p7514
I7513
sVADC
p7515
I7514
sVKMQ
p7516
I7515
sVTGW
p7517
I7516
sVIS=
p7518
I7517
sVSFN
p7519
I7518
sVNYA
p7520
I7519
sVGWE
p7521
I7520
sVQYP
p7522
I7521
sVQWF
p7523
I7522
sVIHG
p7524
I7523
sVGWK
p7525
I7524
sVIWD
p7526
I7525
sVWDE
p7527
I7526
sVYYE
p7528
I7527
sVHET
p7529
I7528
sVCHI
p7530
I7529
sVYVH
p7531
I7530
sVWSM
p7532
I7531
sVKWL
p7533
I7532
sVWIM
p7534
I7533
sVDCV
p7535
I7534
sVHHR
p7536
I7535
sVYDW
p7537
I7536
sVYKR
p7538
I7537
sVKV=
p7539
I7538
sVDPM
p7540
I7539
sVNLH
p7541
I7540
sVMNY
p7542
I7541
sVHIE
p7543
I7542
sVQWH
p7544
I7543
sVWHV
p7545
I7544
sVWTG
p7546
I7545
sVWLF
p7547
I7546
sVEWY
p7548
I7547
sVMQQ
p7549
I7548
sVTRC
p7550
I7549
sVVWW
p7551
I7550
sVWWA
p7552
I7551
sVRMW
p7553
I7552
sVWNY
p7554
I7553
sVNCN
p7555
I7554
sVRKW
p7556
I7555
sVKWW
p7557
I7556
sVWWE
p7558
I7557
sVRGC
p7559
I7558
sVPE=
p7560
I7559
sVTPW
p7561
I7560
sVDHE
p7562
I7561
sVTQW
p7563
I7562
sVTWS
p7564
I7563
sVYVW
p7565
I7564
sVWNN
p7566
I7565
sVDWV
p7567
I7566
sVLWW
p7568
I7567
sVQWL
p7569
I7568
sVCDY
p7570
I7569
sVYRH
p7571
I7570
sVRHI
p7572
I7571
sVRCQ
p7573
I7572
sVQYY
p7574
I7573
sVYYD
p7575
I7574
sVYMG
p7576
I7575
sVAMW
p7577
I7576
sVMWY
p7578
I7577
sVTHM
p7579
I7578
sVVWM
p7580
I7579
sVWME
p7581
I7580
sVHFY
p7582
I7581
sVMD=
p7583
I7582
sVYWD
p7584
I7583
sVCAH
p7585
I7584
sVNER
p7586
I7585
sVWSN
p7587
I7586
sVWNH
p7588
I7587
sVIQ=
p7589
I7588
sVQNN
p7590
I7589
sVRDC
p7591
I7590
sVKCW
p7592
I7591
sVMHC
p7593
I7592
sVCIC
p7594
I7593
sVRCE
p7595
I7594
sVCSW
p7596
I7595
sVCIK
p7597
I7596
sVMRY
p7598
I7597
sVDMG
p7599
I7598
sVRWT
p7600
I7599
sVWDM
p7601
I7600
sVCWQ
p7602
I7601
sVQV=
p7603
I7602
sVEMM
p7604
I7603
sVCKQ
p7605
I7604
sVHDW
p7606
I7605
sVWDY
p7607
I7606
sVMRM
p7608
I7607
sVAL=
p7609
I7608
sVPWC
p7610
I7609
sVVNW
p7611
I7610
sVPIW
p7612
I7611
sVAYC
p7613
I7612
sVYCL
p7614
I7613
sVDNA
p7615
I7614
sVHYK
p7616
I7615
sVWMG
p7617
I7616
sVPCP
p7618
I7617
sVCQC
p7619
I7618
sVQCW
p7620
I7619
sVCEN
p7621
I7620
sVQFW
p7622
I7621
sVFWS
p7623
I7622
sVDMY
p7624
I7623
sVMYK
p7625
I7624
sVTNM
p7626
I7625
sVMAC
p7627
I7626
sVHAY
p7628
I7627
sVWSD
p7629
I7628
sVFWM
p7630
I7629
sVWMS
p7631
I7630
sVRWV
p7632
I7631
sVWVR
p7633
I7632
sVWTN
p7634
I7633
sVEMH
p7635
I7634
sVMHG
p7636
I7635
sVFHH
p7637
I7636
sVWNK
p7638
I7637
sVICC
p7639
I7638
sVPWR
p7640
I7639
sVMIM
p7641
I7640
sVMMF
p7642
I7641
sVNWP
p7643
I7642
sVQWM
p7644
I7643
sVRPM
p7645
I7644
sVQWT
p7646
I7645
sVYTW
p7647
I7646
sVCNN
p7648
I7647
sVWRD
p7649
I7648
sVCEV
p7650
I7649
sVQWD
p7651
I7650
sVAWW
p7652
I7651
sVPRY
p7653
I7652
sVADW
p7654
I7653
sVDWQ
p7655
I7654
sVVKY
p7656
I7655
sVFMY
p7657
I7656
sVKT=
p7658
I7657
sVRMF
p7659
I7658
sVNIQ
p7660
I7659
sVPM=
p7661
I7660
sVGCN
p7662
I7661
sVCNV
p7663
I7662
sVMMP
p7664
I7663
sVMQN
p7665
I7664
sVCHG
p7666
I7665
sVEK=
p7667
I7666
sVHWN
p7668
I7667
sVARC
p7669
I7668
sVDWA
p7670
I7669
sVDF=
p7671
I7670
sVFHQ
p7672
I7671
sVDVC
p7673
I7672
sVVCT
p7674
I7673
sVNAC
p7675
I7674
sVQW=
p7676
I7675
sVWMQ
p7677
I7676
sVPHK
p7678
I7677
sVSCY
p7679
I7678
sVCYP
p7680
I7679
sVSDW
p7681
I7680
sVRCI
p7682
I7681
sVFKW
p7683
I7682
sVVP=
p7684
I7683
sVACW
p7685
I7684
sVCWE
p7686
I7685
sVLYC
p7687
I7686
sVDQC
p7688
I7687
sVNQM
p7689
I7688
sVEY=
p7690
I7689
sVQLW
p7691
I7690
sVYPH
p7692
I7691
sVWCY
p7693
I7692
sVWAS
p7694
I7693
sVNWR
p7695
I7694
sVWGN
p7696
I7695
sVMFC
p7697
I7696
sVNRW
p7698
I7697
sVGE=
p7699
I7698
sVGMY
p7700
I7699
sVTVH
p7701
I7700
sVNWM
p7702
I7701
sVPMQ
p7703
I7702
sVAN=
p7704
I7703
sVWTT
p7705
I7704
sVQTH
p7706
I7705
sVHDR
p7707
I7706
sVWWG
p7708
I7707
sVFYN
p7709
I7708
sVHVY
p7710
I7709
sVTA=
p7711
I7710
sVMWG
p7712
I7711
sVRMI
p7713
I7712
sVQSM
p7714
I7713
sVVN=
p7715
I7714
sVDPH
p7716
I7715
sVMRQ
p7717
I7716
sVDMW
p7718
I7717
sVMWS
p7719
I7718
sVWPR
p7720
I7719
sVWEP
p7721
I7720
sVMIH
p7722
I7721
sVHQN
p7723
I7722
sVEQH
p7724
I7723
sVMMR
p7725
I7724
sVCQK
p7726
I7725
sVHKM
p7727
I7726
sVWTH
p7728
I7727
sVEWG
p7729
I7728
sVCRC
p7730
I7729
sVCDW
p7731
I7730
sVNWQ
p7732
I7731
sVYPY
p7733
I7732
sVYV=
p7734
I7733
sVVWG
p7735
I7734
sVHFN
p7736
I7735
sVAQ=
p7737
I7736
sVMHR
p7738
I7737
sVPCF
p7739
I7738
sVCFM
p7740
I7739
sVEW=
p7741
I7740
sVHHY
p7742
I7741
sVWFH
p7743
I7742
sVWML
p7744
I7743
sVTQH
p7745
I7744
sVWYA
p7746
I7745
sV-MF
p7747
I7746
sVWYY
p7748
I7747
sVKPW
p7749
I7748
sVWCF
p7750
I7749
sVCWV
p7751
I7750
sVTRH
p7752
I7751
sVTYY
p7753
I7752
sVGF=
p7754
I7753
sVHRC
p7755
I7754
sVRCW
p7756
I7755
sVHQC
p7757
I7756
sVSWC
p7758
I7757
sVPCY
p7759
I7758
sVWFC
p7760
I7759
sVRYH
p7761
I7760
sVWNQ
p7762
I7761
sVWGM
p7763
I7762
sVIF=
p7764
I7763
sVMQG
p7765
I7764
sVECM
p7766
I7765
sVCMY
p7767
I7766
sVMYG
p7768
I7767
sVPMW
p7769
I7768
sVYNC
p7770
I7769
sVSNW
p7771
I7770
sVQNF
p7772
I7771
sVKWQ
p7773
I7772
sVHLF
p7774
I7773
sVHDP
p7775
I7774
sVCFQ
p7776
I7775
sVCCN
p7777
I7776
sVCCR
p7778
I7777
sVRFW
p7779
I7778
sVFWD
p7780
I7779
sVEC=
p7781
I7780
sVECC
p7782
I7781
sVCCM
p7783
I7782
sVSP=
p7784
I7783
sVMQW
p7785
I7784
sVWYL
p7786
I7785
sVWGY
p7787
I7786
sVNV=
p7788
I7787
sVHWW
p7789
I7788
sVWWR
p7790
I7789
sVRCY
p7791
I7790
sVSYH
p7792
I7791
sVYHN
p7793
I7792
sVHQM
p7794
I7793
sVQMT
p7795
I7794
sVDKC
p7796
I7795
sVWHL
p7797
I7796
sVCRW
p7798
I7797
sVYCS
p7799
I7798
sVEKW
p7800
I7799
sVYHQ
p7801
I7800
sVYGW
p7802
I7801
sVYDQ
p7803
I7802
sVTIW
p7804
I7803
sVIWR
p7805
I7804
sVDTW
p7806
I7805
sVEF=
p7807
I7806
sVYWH
p7808
I7807
sVNNM
p7809
I7808
sVTR=
p7810
I7809
sVMVH
p7811
I7810
sVCKS
p7812
I7811
sVHGC
p7813
I7812
sVYYH
p7814
I7813
sVQDW
p7815
I7814
sVHNN
p7816
I7815
sVLWD
p7817
I7816
sVPYQ
p7818
I7817
sVWLM
p7819
I7818
sVWTQ
p7820
I7819
sVMWQ
p7821
I7820
sVMCW
p7822
I7821
sVPKM
p7823
I7822
sVPS=
p7824
I7823
sVHWC
p7825
I7824
sVKWG
p7826
I7825
sVHWS
p7827
I7826
sVMHI
p7828
I7827
sVCDE
p7829
I7828
sVLR=
p7830
I7829
sVYHT
p7831
I7830
sVKE=
p7832
I7831
sVHNI
p7833
I7832
sVLCM
p7834
I7833
sVCMH
p7835
I7834
sVWPY
p7836
I7835
sVCHC
p7837
I7836
sVYQK
p7838
I7837
sVGC=
p7839
I7838
sVMWL
p7840
I7839
sVGHW
p7841
I7840
sVQPW
p7842
I7841
sVDCK
p7843
I7842
sVQP=
p7844
I7843
sVGGW
p7845
I7844
sVHFE
p7846
I7845
sVHYW
p7847
I7846
sVWHN
p7848
I7847
sVCNC
p7849
I7848
sVGHP
p7850
I7849
sVRWC
p7851
I7850
sVWCQ
p7852
I7851
sVSMQ
p7853
I7852
sVFFY
p7854
I7853
sVHL=
p7855
I7854
sVYGH
p7856
I7855
sVHWR
p7857
I7856
sVDI=
p7858
I7857
sVVMC
p7859
I7858
sVYQ=
p7860
I7859
sVNS=
p7861
I7860
sVRIC
p7862
I7861
sVHHF
p7863
I7862
sVTF=
p7864
I7863
sVWYG
p7865
I7864
sVWTM
p7866
I7865
sVWMP
p7867
I7866
sVYFF
p7868
I7867
sVMTN
p7869
I7868
sVRMQ
p7870
I7869
sVHMC
p7871
I7870
sVGQ=
p7872
I7871
sVCYQ
p7873
I7872
sVQYH
p7874
I7873
sVCMT
p7875
I7874
sVQFC
p7876
I7875
sVWRI
p7877
I7876
sVAV=
p7878
I7877
sVQPC
p7879
I7878
sVQCK
p7880
I7879
sVIPW
p7881
I7880
sVDK=
p7882
I7881
sVPMR
p7883
I7882
sVMRW
p7884
I7883
sVWG=
p7885
I7884
sVCKW
p7886
I7885
sVHEW
p7887
I7886
sVVPW
p7888
I7887
sVHYV
p7889
I7888
sVYCV
p7890
I7889
sVHRM
p7891
I7890
sVTYW
p7892
I7891
sVWGT
p7893
I7892
sVWCA
p7894
I7893
sVDMC
p7895
I7894
sVMCD
p7896
I7895
sVDWH
p7897
I7896
sVMVC
p7898
I7897
sVCHV
p7899
I7898
sVHWT
p7900
I7899
sVMSC
p7901
I7900
sVMHP
p7902
I7901
sVRF=
p7903
I7902
sVKWR
p7904
I7903
sVAA=
p7905
I7904
sVWIC
p7906
I7905
sVEHW
p7907
I7906
sVNCF
p7908
I7907
sVCYH
p7909
I7908
sVTMG
p7910
I7909
sVFAW
p7911
I7910
sVMQY
p7912
I7911
sVFHM
p7913
I7912
sVYCQ
p7914
I7913
sVCWG
p7915
I7914
sVHRY
p7916
I7915
sVLK=
p7917
I7916
sVDW=
p7918
I7917
sVMIY
p7919
I7918
sVPYC
p7920
I7919
sVMQI
p7921
I7920
sVCGM
p7922
I7921
sVKMC
p7923
I7922
sVQIC
p7924
I7923
sVYHM
p7925
I7924
sVMYN
p7926
I7925
sVHSN
p7927
I7926
sVMCR
p7928
I7927
sVQN=
p7929
I7928
sVAH=
p7930
I7929
sVDHW
p7931
I7930
sVWHE
p7932
I7931
sVHWG
p7933
I7932
sVDDH
p7934
I7933
sVFK=
p7935
I7934
sVGMW
p7936
I7935
sVNTM
p7937
I7936
sVHFG
p7938
I7937
sVNHW
p7939
I7938
sVQMQ
p7940
I7939
sVYCM
p7941
I7940
sVAWM
p7942
I7941
sVECW
p7943
I7942
sVFQM
p7944
I7943
sVDWK
p7945
I7944
sVSH=
p7946
I7945
sVVD=
p7947
I7946
sVFCM
p7948
I7947
sVWQQ
p7949
I7948
sVQYM
p7950
I7949
sVHCH
p7951
I7950
sVWVH
p7952
I7951
sVIYW
p7953
I7952
sVPL=
p7954
I7953
sVYYW
p7955
I7954
sVAM=
p7956
I7955
sVHVM
p7957
I7956
sVMWW
p7958
I7957
sVKYC
p7959
I7958
sVNYH
p7960
I7959
sVFHW
p7961
I7960
sVWET
p7962
I7961
sVYHH
p7963
I7962
sVFA=
p7964
I7963
sVYHD
p7965
I7964
sVCTC
p7966
I7965
sVCTY
p7967
I7966
sVHNT
p7968
I7967
sVFS=
p7969
I7968
sVFHC
p7970
I7969
sVNNH
p7971
I7970
sVWCS
p7972
I7971
sVWRN
p7973
I7972
sVCMG
p7974
I7973
sVCDD
p7975
I7974
sVTCM
p7976
I7975
sVWDT
p7977
I7976
sVGT=
p7978
I7977
sVQCC
p7979
I7978
sVAYM
p7980
I7979
sVLN=
p7981
I7980
sVCYW
p7982
I7981
sVYHC
p7983
I7982
sVKCN
p7984
I7983
sVCMR
p7985
I7984
sVKF=
p7986
I7985
sVWPH
p7987
I7986
sVNA=
p7988
I7987
sVGIW
p7989
I7988
sVWGF
p7990
I7989
sVWFM
p7991
I7990
sVWHT
p7992
I7991
sVWYP
p7993
I7992
sVPWM
p7994
I7993
sVMGW
p7995
I7994
sVAMH
p7996
I7995
sVIT=
p7997
I7996
sVPK=
p7998
I7997
sVFWN
p7999
I7998
sVRQW
p8000
I7999
sVHWK
p8001
I8000
sVWVM
p8002
I8001
sVDMH
p8003
I8002
sVWWF
p8004
I8003
sVWHC
p8005
I8004
sVSQW
p8006
I8005
sVWQN
p8007
I8006
sVGWH
p8008
I8007
sVYQW
p8009
I8008
sVNWN
p8010
I8009
sVNMW
p8011
I8010
sVHS=
p8012
I8011
sVNRC
p8013
I8012
sVMMM
p8014
I8013
sVCWM
p8015
I8014
sVSQ=
p8016
I8015
sVKRW
p8017
I8016
sVFMH
p8018
I8017
sVKP=
p8019
I8018
sVIQW
p8020
I8019
sVQWG
p8021
I8020
sVCMD
p8022
I8021
sVHVC
p8023
I8022
sVMHT
p8024
I8023
sVYMH
p8025
I8024
sVTHC
p8026
I8025
sVMTH
p8027
I8026
sVMHN
p8028
I8027
sVWPK
p8029
I8028
sVPA=
p8030
I8029
sVIMF
p8031
I8030
sVCHM
p8032
I8031
sVWAY
p8033
I8032
sVST=
p8034
I8033
sVNMH
p8035
I8034
sVMHH
p8036
I8035
sVQMN
p8037
I8036
sVWWP
p8038
I8037
sVHMW
p8039
I8038
sVMWH
p8040
I8039
sVWHR
p8041
I8040
sVWCI
p8042
I8041
sVHCP
p8043
I8042
sVHYI
p8044
I8043
sVED=
p8045
I8044
sVWKY
p8046
I8045
sVYC=
p8047
I8046
sVKWC
p8048
I8047
sVWCN
p8049
I8048
sVTS=
p8050
I8049
sVCFH
p8051
I8050
sVIE=
p8052
I8051
sVCQM
p8053
I8052
sVWWV
p8054
I8053
sVHA=
p8055
I8054
sVMHM
p8056
I8055
sVNQW
p8057
I8056
sVVS=
p8058
I8057
sVPH=
p8059
I8058
sVNCH
p8060
I8059
sVTFM
p8061
I8060
sVWST
p8062
I8061
sVNCW
p8063
I8062
sVWWH
p8064
I8063
sVSR=
p8065
I8064
sVWFN
p8066
I8065
sVMT=
p8067
I8066
sVYQH
p8068
I8067
sVQQ=
p8069
I8068
sVQE=
p8070
I8069
sVHAM
p8071
I8070
sVCDQ
p8072
I8071
sVYMQ
p8073
I8072
sVKY=
p8074
I8073
sVLE=
p8075
I8074
sVMWP
p8076
I8075
sVCWN
p8077
I8076
sVWCD
p8078
I8077
sVCWC
p8079
I8078
sVKN=
p8080
I8079
sVGWQ
p8081
I8080
sVWQM
p8082
I8081
sVCNP
p8083
I8082
sVHMA
p8084
I8083
sVWFT
p8085
I8084
sVNWW
p8086
I8085
sVHWF
p8087
I8086
sVHK=
p8088
I8087
sVRC=
p8089
I8088
sVWSW
p8090
I8089
sVWHY
p8091
I8090
sVHYQ
p8092
I8091
sVTWM
p8093
I8092
sVGH=
p8094
I8093
sV-DL
p8095
I8094
sV-MY
p8096
I8095
sVMMH
p8097
I8096
sVCIW
p8098
I8097
sVYWC
p8099
I8098
sVWN=
p8100
I8099
sVIHM
p8101
I8100
sVMY=
p8102
I8101
sVIWC
p8103
I8102
sVMKW
p8104
I8103
sVMQC
p8105
I8104
sVFWH
p8106
I8105
sVDFC
p8107
I8106
sVQMC
p8108
I8107
sVMCN
p8109
I8108
sVIWF
p8110
I8109
sVWV=
p8111
I8110
sVHHM
p8112
I8111
sVWHQ
p8113
I8112
sVDWM
p8114
I8113
sVRWW
p8115
I8114
sVTC=
p8116
I8115
sVHCC
p8117
I8116
sVWMF
p8118
I8117
sVRP=
p8119
I8118
sVQS=
p8120
I8119
sVDD=
p8121
I8120
sVHTC
p8122
I8121
sVES=
p8123
I8122
sVMHF
p8124
I8123
sVAWY
p8125
I8124
sVWPC
p8126
I8125
sVEWM
p8127
I8126
sVQM=
p8128
I8127
sVSMW
p8129
I8128
sVYT=
p8130
I8129
sVQC=
p8131
I8130
sVGCU
p8132
I8131
sVCUG
p8133
I8132
sVUG=
p8134
I8133
sVMTC
p8135
I8134
sVDC=
p8136
I8135
sVHAW
p8137
I8136
sVSMC
p8138
I8137
sVWHA
p8139
I8138
sVYYM
p8140
I8139
sVQF=
p8141
I8140
sVWFF
p8142
I8141
sVIR=
p8143
I8142
sVQK=
p8144
I8143
sVMI=
p8145
I8144
sVHR=
p8146
I8145
sVWIW
p8147
I8146
sVWVW
p8148
I8147
sVMYM
p8149
I8148
sVIV=
p8150
I8149
sVDN=
p8151
I8150
sVWCV
p8152
I8151
sVLT=
p8153
I8152
sVKD=
p8154
I8153
sVHMR
p8155
I8154
sVMCM
p8156
I8155
sVDP=
p8157
I8156
sVMFW
p8158
I8157
sVNWH
p8159
I8158
sVAE=
p8160
I8159
sVLD=
p8161
I8160
sVSY=
p8162
I8161
sVPR=
p8163
I8162
sVIWP
p8164
I8163
sVGCW
p8165
I8164
sVPQ=
p8166
I8165
sVQRW
p8167
I8166
sVWC=
p8168
I8167
sVYWM
p8169
I8168
sVNP=
p8170
I8169
sVVF=
p8171
I8170
sVHWV
p8172
I8171
sVDQ=
p8173
I8172
sVYPW
p8174
I8173
sVPD=
p8175
I8174
sVWEW
p8176
I8175
sVHE=
p8177
I8176
sVHIW
p8178
I8177
sVCC=
p8179
I8178
sVSN=
p8180
I8179
sVFC=
p8181
I8180
sVTY=
p8182
I8181
sVYK=
p8183
I8182
sVCPW
p8184
I8183
sVII=
p8185
I8184
sVHCM
p8186
I8185
sVAP=
p8187
I8186
sVYDC
p8188
I8187
sVRH=
p8189
I8188
sVMTW
p8190
I8189
sVPI=
p8191
I8190
sVCRM
p8192
I8191
sVLC=
p8193
I8192
sVAY=
p8194
I8193
sVIY=
p8195
I8194
sVCNF
p8196
I8195
sVEH=
p8197
I8196
sVYE=
p8198
I8197
sVTE=
p8199
I8198
sVAK=
p8200
I8199
sVHMM
p8201
I8200
sVCPC
p8202
I8201
sVRG=
p8203
I8202
sVTK=
p8204
I8203
sVCT=
p8205
I8204
sVCGW
p8206
I8205
sVPP=
p8207
I8206
sVRN=
p8208
I8207
sVPCM
p8209
I8208
sVLQ=
p8210
I8209
sVTG=
p8211
I8210
sVVV=
p8212
I8211
sVPWH
p8213
I8212
sVWR=
p8214
I8213
sV-MC
p8215
I8214
sVHV=
p8216
I8215
sVWQW
p8217
I8216
sVTD=
p8218
I8217
sVWQC
p8219
I8218
sVMP=
p8220
I8219
sVFH=
p8221
I8220
sVWWW
p8222
I8221
sVWF=
p8223
I8222
sVFD=
p8224
I8223
sVTN=
p8225
I8224
sVMEW
p8226
I8225
sVID=
p8227
I8226
sVKWH
p8228
I8227
sVRA=
p8229
I8228
sVLF=
p8230
I8229
sVYH=
p8231
I8230
sVQMW
p8232
I8231
sVHCW
p8233
I8232
sVHH=
p8234
I8233
sVRM=
p8235
I8234
sVCF=
p8236
I8235
sVNF=
p8237
I8236
sVWCR
p8238
I8237
sVVIW
p8239
I8238
sVCD=
p8240
I8239
sVCR=
p8241
I8240
sVSC=
p8242
I8241
sVEN=
p8243
I8242
sVNE=
p8244
I8243
sVGR=
p8245
I8244
sVHWE
p8246
I8245
sVKM=
p8247
I8246
sVGP=
p8248
I8247
sVKR=
p8249
I8248
sVWGC
p8250
I8249
sVEP=
p8251
I8250
sVEG=
p8252
I8251
sVGWC
p8253
I8252
sVVW=
p8254
I8253
sVVH=
p8255
I8254
sVNQ=
p8256
I8255
sVSA=
p8257
I8256
sVCMW
p8258
I8257
sVCWP
p8259
I8258
sVME=
p8260
I8259
sVHD=
p8261
I8260
sVYG=
p8262
I8261
sVRT=
p8263
I8262
sVFWW
p8264
I8263
sVCMC
p8265
I8264
sVCP=
p8266
I8265
sVWKC
p8267
I8266
sVMS=
p8268
I8267
sVCS=
p8269
I8268
sVQT=
p8270
I8269
sVVE=
p8271
I8270
sVMIW
p8272
I8271
sVVC=
p8273
I8272
sVSD=
p8274
I8273
sVYS=
p8275
I8274
sVVR=
p8276
I8275
sVDT=
p8277
I8276
sVWE=
p8278
I8277
sVIA=
p8279
I8278
sV-AS
p8280
I8279
sVWT=
p8281
I8280
sVPF=
p8282
I8281
sVTW=
p8283
I8282
sVFT=
p8284
I8283
sVTT=
p8285
I8284
sVTWW
p8286
I8285
sVHW=
p8287
I8286
sVSI=
p8288
I8287
sVTHW
p8289
I8288
sVSF=
p8290
I8289
sVVA=
p8291
I8290
sVWS=
p8292
I8291
sVYW=
p8293
I8292
sVDG=
p8294
I8293
sVHI=
p8295
I8294
sVIK=
p8296
I8295
sVWYC
p8297
I8296
sVAG=
p8298
I8297
sVCL=
p8299
I8298
sVTH=
p8300
I8299
sVML=
p8301
I8300
sVWP=
p8302
I8301
sVER=
p8303
I8302
sVMWM
p8304
I8303
sVWMM
p8305
I8304
sVYM=
p8306
I8305
sVQH=
p8307
I8306
sVYCW
p8308
I8307
sVWMW
p8309
I8308
sVMF=
p8310
I8309
sVSK=
p8311
I8310
sVKH=
p8312
I8311
sVVK=
p8313
I8312
sVYR=
p8314
I8313
sVFP=
p8315
I8314
sVFQ=
p8316
I8315
sVIC=
p8317
I8316
sVMQ=
p8318
I8317
sVWYE
p8319
I8318
sVGG=
p8320
I8319
sVCW=
p8321
I8320
sVTP=
p8322
I8321
sVWHW
p8323
I8322
sVHF=
p8324
I8323
sVYP=
p8325
I8324
sV-IQ
p8326
I8325
sVIL=
p8327
I8326
sVGM=
p8328
I8327
sVAW=
p8329
I8328
sVAT=
p8330
I8329
sVDR=
p8331
I8330
sVRI=
p8332
I8331
sVWCM
p8333
I8332
sVSW=
p8334
I8333
sVWMY
p8335
I8334
sVGI=
p8336
I8335
sVCWW
p8337
I8336
sVHP=
p8338
I8337
sVAC=
p8339
I8338
sVFI=
p8340
I8339
sVHN=
p8341
I8340
sVQY=
p8342
I8341
sVHWM
p8343
I8342
sVKG=
p8344
I8343
sVYN=
p8345
I8344
sVIP=
p8346
I8345
sVCK=
p8347
I8346
sVLI=
p8348
I8347
sVNC=
p8349
I8348
sVCN=
p8350
I8349
sVET=
p8351
I8350
sVCG=
p8352
I8351
sVCI=
p8353
I8352
sVQG=
p8354
I8353
sVSG=
p8355
I8354
sVCHW
p8356
I8355
sVCQ=
p8357
I8356
sVQR=
p8358
I8357
sVFR=
p8359
I8358
sV-GS
p8360
I8359
sVCY=
p8361
I8360
sVVG=
p8362
I8361
sVFN=
p8363
I8362
sVNH=
p8364
I8363
sVPN=
p8365
I8364
sVMW=
p8366
I8365
sVDE=
p8367
I8366
sVNN=
p8368
I8367
sVNR=
p8369
I8368
sVSM=
p8370
I8369
sVSLU
p8371
I8370
sVLUG
p8372
I8371
sVUGT
p8373
I8372
sVYI=
p8374
I8373
sVWA=
p8375
I8374
sVNM=
p8376
I8375
sVMV=
p8377
I8376
sVMA=
p8378
I8377
sVGY=
p8379
I8378
sVAF=
p8380
I8379
sVNW=
p8381
I8380
sV-RT
p8382
I8381
sVQI=
p8383
I8382
sVRE=
p8384
I8383
sVSYU
p8385
I8384
sVYUG
p8386
I8385
sVUGL
p8387
I8386
sVWK=
p8388
I8387
sVRY=
p8389
I8388
sVVY=
p8390
I8389
sVMM=
p8391
I8390
sVTI=
p8392
I8391
sVHG=
p8393
I8392
sVHM=
p8394
I8393
sVMC=
p8395
I8394
sVASU
p8396
I8395
sVSUY
p8397
I8396
sVUYL
p8398
I8397
sVRSU
p8399
I8398
sVSUC
p8400
I8399
sVUCC
p8401
I8400
sVITU
p8402
I8401
sVTUQ
p8403
I8402
sVUQC
p8404
I8403
sVCSU
p8405
I8404
sVSUQ
p8406
I8405
sVUQG
p8407
I8406
sVCQU
p8408
I8407
sVQUR
p8409
I8408
sVURL
p8410
I8409
sVAAU
p8411
I8410
sVAUQ
p8412
I8411
sVUQI
p8413
I8412
sVSUR
p8414
I8413
sVURU
p8415
I8414
sVRUK
p8416
I8415
sVUKN
p8417
I8416
sVKKU
p8418
I8417
sVKUE
p8419
I8418
sVUEU
p8420
I8419
sVEUP
p8421
I8420
sVUPS
p8422
I8421
sVYMW
p8423
I8422
sVCE=
p8424
I8423
sVAYU
p8425
I8424
sVIH=
p8426
I8425
sVFE=
p8427
I8426
sVYD=
p8428
I8427
sVIN=
p8429
I8428
sVDM=
p8430
I8429
sVWH=
p8431
I8430
sVPY=
p8432
I8431
sVEQ=
p8433
I8432
sVCH=
p8434
I8433
sVMG=
p8435
I8434
sVNG=
p8436
I8435
sVFW=
p8437
I8436
sVIG=
p8438
I8437
sVHT=
p8439
I8438
sVMN=
p8440
I8439
sVRW=
p8441
I8440
sVLH=
p8442
I8441
sV-GQ
p8443
I8442
sVWM=
p8444
I8443
sVMR=
p8445
I8444
sVGD=
p8446
I8445
sVFM=
p8447
I8446
sVFF=
p8448
I8447
sVPW=
p8449
I8448
sVVT=
p8450
I8449
sVEM=
p8451
I8450
sVKW=
p8452
I8451
s.